

Microchip MPLAB XC8 Assembler V2.36 build 20220127204148 
                                                                                               Wed Mar 08 12:46:00 2023

Microchip MPLAB XC8 C Compiler v2.36 (Free license) build 20220127204148 Og1 
     1                           	processor	16F15223
     2                           	pagewidth 120
     3                           	opt	flic
     4                           	psect	stringtext1,global,class=STRCODE,delta=2,noexec
     5                           	psect	stringtext2,global,class=STRCODE,delta=2,noexec
     6                           	psect	nvCOMMON,global,class=COMMON,space=1,delta=1,noexec
     7                           	psect	cinit,global,class=CODE,merge=1,delta=2
     8                           	psect	bssCOMMON,global,class=COMMON,space=1,delta=1,noexec
     9                           	psect	cstackCOMMON,global,class=COMMON,space=1,delta=1,noexec
    10                           	psect	maintext,global,class=CODE,merge=1,split=1,delta=2
    11                           	psect	text1,local,class=CODE,merge=1,delta=2
    12                           	psect	text2,local,class=CODE,merge=1,delta=2
    13                           	psect	text3,local,class=CODE,merge=1,delta=2
    14                           	psect	text4,local,class=CODE,merge=1,delta=2
    15                           	psect	text5,local,class=CODE,merge=1,delta=2
    16                           	psect	text6,local,class=CODE,merge=1,delta=2
    17                           	psect	text7,local,class=CODE,merge=1,delta=2
    18                           	psect	text8,local,class=CODE,merge=1,delta=2
    19                           	psect	intentry,global,class=CODE,delta=2
    20                           	psect	text10,local,class=CODE,merge=1,delta=2
    21                           	psect	text11,local,class=CODE,merge=1,delta=2
    22                           	psect	text12,local,class=CODE,merge=1,delta=2
    23                           	psect	text13,local,class=CODE,merge=1,delta=2
    24                           	psect	text14,local,class=CODE,merge=1,delta=2
    25                           	psect	text15,local,class=CODE,merge=1,delta=2
    26                           	psect	text16,local,class=CODE,merge=1,delta=2
    27                           	psect	idloc,global,abs,ovrld,class=IDLOC,space=5,delta=2,noexec
    28                           	psect	config,global,abs,ovrld,class=CONFIG,space=4,delta=2,noexec
    29                           	dabs	1,0x7E,2
    30  0000                     
    31                           ; Generated 19/12/2022 GMT
    32                           ; 
    33                           ; Copyright © 2022, Microchip Technology Inc. and its subsidiaries ("Microchip")
    34                           ; All rights reserved.
    35                           ; 
    36                           ; This software is developed by Microchip Technology Inc. and its subsidiaries ("Microch
      +                          ip").
    37                           ; 
    38                           ; Redistribution and use in source and binary forms, with or without modification, are
    39                           ; permitted provided that the following conditions are met:
    40                           ; 
    41                           ;     1. Redistributions of source code must retain the above copyright notice, this lis
      +                          t of
    42                           ;        conditions and the following disclaimer.
    43                           ; 
    44                           ;     2. Redistributions in binary form must reproduce the above copyright notice, this 
      +                          list
    45                           ;        of conditions and the following disclaimer in the documentation and/or other
    46                           ;        materials provided with the distribution. Publication is not required when
    47                           ;        this file is used in an embedded application.
    48                           ; 
    49                           ;     3. Microchip's name may not be used to endorse or promote products derived from th
      +                          is
    50                           ;        software without specific prior written permission.
    51                           ; 
    52                           ; THIS SOFTWARE IS PROVIDED BY MICROCHIP "AS IS" AND ANY EXPRESS OR IMPLIED WARRANTIES,
    53                           ; INCLUDING, BUT NOT LIMITED TO, THE IMPLIED WARRANTIES OF MERCHANTABILITY AND FITNESS F
      +                          OR
    54                           ; PURPOSE ARE DISCLAIMED.  IN NO EVENT SHALL MICROCHIP BE LIABLE FOR ANY DIRECT, INDIREC
      +                          T,
    55                           ; INCIDENTAL, SPECIAL, EXEMPLARY, OR CONSEQUENTIAL DAMAGES (INCLUDING BUT NOT LIMITED TO
    56                           ; PROCUREMENT OF SUBSTITUTE GOODS OR SERVICES; LOSS OF USE, DATA OR PROFITS; OR BUSINESS
    57                           ; INTERRUPTION) HOWSOEVER CAUSED AND ON ANY THEORY OF LIABILITY, WHETHER IN CONTRACT, ST
      +                          RICT
    58                           ; LIABILITY, OR TORT (INCLUDING NEGLIGENCE OR OTHERWISE) ARISING IN ANY WAY OUT OF THE U
      +                          SE OF
    59                           ; THIS SOFTWARE, EVEN IF ADVISED OF THE POSSIBILITY OF SUCH DAMAGE.
    60                           ; 
    61                           ; 
    62                           ; Code-generator required, PIC16F15223 Definitions
    63                           ; 
    64                           ; SFR Addresses
    65  0000                     	;# 
    66  0001                     	;# 
    67  0002                     	;# 
    68  0003                     	;# 
    69  0004                     	;# 
    70  0005                     	;# 
    71  0006                     	;# 
    72  0007                     	;# 
    73  0008                     	;# 
    74  0009                     	;# 
    75  000A                     	;# 
    76  000B                     	;# 
    77  000C                     	;# 
    78  000E                     	;# 
    79  0012                     	;# 
    80  0014                     	;# 
    81  0018                     	;# 
    82  001A                     	;# 
    83  009A                     	;# 
    84  009B                     	;# 
    85  009B                     	;# 
    86  009C                     	;# 
    87  009D                     	;# 
    88  009E                     	;# 
    89  009F                     	;# 
    90  010E                     	;# 
    91  010F                     	;# 
    92  0119                     	;# 
    93  011A                     	;# 
    94  011B                     	;# 
    95  011B                     	;# 
    96  011C                     	;# 
    97  011D                     	;# 
    98  011E                     	;# 
    99  011F                     	;# 
   100  018C                     	;# 
   101  018D                     	;# 
   102  018E                     	;# 
   103  018F                     	;# 
   104  0190                     	;# 
   105  0191                     	;# 
   106  0192                     	;# 
   107  020C                     	;# 
   108  020D                     	;# 
   109  020E                     	;# 
   110  020E                     	;# 
   111  020F                     	;# 
   112  020F                     	;# 
   113  0210                     	;# 
   114  0210                     	;# 
   115  0211                     	;# 
   116  0211                     	;# 
   117  028C                     	;# 
   118  028C                     	;# 
   119  028D                     	;# 
   120  028D                     	;# 
   121  028E                     	;# 
   122  028F                     	;# 
   123  0290                     	;# 
   124  0291                     	;# 
   125  030C                     	;# 
   126  030C                     	;# 
   127  030D                     	;# 
   128  030E                     	;# 
   129  030F                     	;# 
   130  0310                     	;# 
   131  0310                     	;# 
   132  0311                     	;# 
   133  0312                     	;# 
   134  0313                     	;# 
   135  0314                     	;# 
   136  0314                     	;# 
   137  0315                     	;# 
   138  0316                     	;# 
   139  0318                     	;# 
   140  0318                     	;# 
   141  0319                     	;# 
   142  031A                     	;# 
   143  059C                     	;# 
   144  059C                     	;# 
   145  059D                     	;# 
   146  059D                     	;# 
   147  059E                     	;# 
   148  059F                     	;# 
   149  070C                     	;# 
   150  070D                     	;# 
   151  070E                     	;# 
   152  0716                     	;# 
   153  0717                     	;# 
   154  0718                     	;# 
   155  080C                     	;# 
   156  0811                     	;# 
   157  0813                     	;# 
   158  0814                     	;# 
   159  081A                     	;# 
   160  081A                     	;# 
   161  081B                     	;# 
   162  081C                     	;# 
   163  081C                     	;# 
   164  081D                     	;# 
   165  081E                     	;# 
   166  081F                     	;# 
   167  088E                     	;# 
   168  0890                     	;# 
   169  0891                     	;# 
   170  0892                     	;# 
   171  0893                     	;# 
   172  090C                     	;# 
   173  1E8F                     	;# 
   174  1E90                     	;# 
   175  1E91                     	;# 
   176  1E92                     	;# 
   177  1E93                     	;# 
   178  1E9C                     	;# 
   179  1EA1                     	;# 
   180  1EA2                     	;# 
   181  1EC3                     	;# 
   182  1EC5                     	;# 
   183  1EC6                     	;# 
   184  1EC7                     	;# 
   185  1ECB                     	;# 
   186  1ECB                     	;# 
   187  1ECB                     	;# 
   188  1ECC                     	;# 
   189  1ECC                     	;# 
   190  1ECC                     	;# 
   191  1F10                     	;# 
   192  1F11                     	;# 
   193  1F12                     	;# 
   194  1F14                     	;# 
   195  1F15                     	;# 
   196  1F20                     	;# 
   197  1F21                     	;# 
   198  1F22                     	;# 
   199  1F23                     	;# 
   200  1F24                     	;# 
   201  1F25                     	;# 
   202  1F38                     	;# 
   203  1F39                     	;# 
   204  1F3A                     	;# 
   205  1F3B                     	;# 
   206  1F3C                     	;# 
   207  1F3D                     	;# 
   208  1F3E                     	;# 
   209  1F3F                     	;# 
   210  1F4E                     	;# 
   211  1F4F                     	;# 
   212  1F50                     	;# 
   213  1F51                     	;# 
   214  1F52                     	;# 
   215  1F53                     	;# 
   216  1F54                     	;# 
   217  1F55                     	;# 
   218  1FE4                     	;# 
   219  1FE5                     	;# 
   220  1FE6                     	;# 
   221  1FE7                     	;# 
   222  1FE8                     	;# 
   223  1FE8                     	;# 
   224  1FE9                     	;# 
   225  1FEA                     	;# 
   226  1FEB                     	;# 
   227  1FED                     	;# 
   228  1FEE                     	;# 
   229  1FEF                     	;# 
   230  0000                     	;# 
   231  0001                     	;# 
   232  0002                     	;# 
   233  0003                     	;# 
   234  0004                     	;# 
   235  0005                     	;# 
   236  0006                     	;# 
   237  0007                     	;# 
   238  0008                     	;# 
   239  0009                     	;# 
   240  000A                     	;# 
   241  000B                     	;# 
   242  000C                     	;# 
   243  000E                     	;# 
   244  0012                     	;# 
   245  0014                     	;# 
   246  0018                     	;# 
   247  001A                     	;# 
   248  009A                     	;# 
   249  009B                     	;# 
   250  009B                     	;# 
   251  009C                     	;# 
   252  009D                     	;# 
   253  009E                     	;# 
   254  009F                     	;# 
   255  010E                     	;# 
   256  010F                     	;# 
   257  0119                     	;# 
   258  011A                     	;# 
   259  011B                     	;# 
   260  011B                     	;# 
   261  011C                     	;# 
   262  011D                     	;# 
   263  011E                     	;# 
   264  011F                     	;# 
   265  018C                     	;# 
   266  018D                     	;# 
   267  018E                     	;# 
   268  018F                     	;# 
   269  0190                     	;# 
   270  0191                     	;# 
   271  0192                     	;# 
   272  020C                     	;# 
   273  020D                     	;# 
   274  020E                     	;# 
   275  020E                     	;# 
   276  020F                     	;# 
   277  020F                     	;# 
   278  0210                     	;# 
   279  0210                     	;# 
   280  0211                     	;# 
   281  0211                     	;# 
   282  028C                     	;# 
   283  028C                     	;# 
   284  028D                     	;# 
   285  028D                     	;# 
   286  028E                     	;# 
   287  028F                     	;# 
   288  0290                     	;# 
   289  0291                     	;# 
   290  030C                     	;# 
   291  030C                     	;# 
   292  030D                     	;# 
   293  030E                     	;# 
   294  030F                     	;# 
   295  0310                     	;# 
   296  0310                     	;# 
   297  0311                     	;# 
   298  0312                     	;# 
   299  0313                     	;# 
   300  0314                     	;# 
   301  0314                     	;# 
   302  0315                     	;# 
   303  0316                     	;# 
   304  0318                     	;# 
   305  0318                     	;# 
   306  0319                     	;# 
   307  031A                     	;# 
   308  059C                     	;# 
   309  059C                     	;# 
   310  059D                     	;# 
   311  059D                     	;# 
   312  059E                     	;# 
   313  059F                     	;# 
   314  070C                     	;# 
   315  070D                     	;# 
   316  070E                     	;# 
   317  0716                     	;# 
   318  0717                     	;# 
   319  0718                     	;# 
   320  080C                     	;# 
   321  0811                     	;# 
   322  0813                     	;# 
   323  0814                     	;# 
   324  081A                     	;# 
   325  081A                     	;# 
   326  081B                     	;# 
   327  081C                     	;# 
   328  081C                     	;# 
   329  081D                     	;# 
   330  081E                     	;# 
   331  081F                     	;# 
   332  088E                     	;# 
   333  0890                     	;# 
   334  0891                     	;# 
   335  0892                     	;# 
   336  0893                     	;# 
   337  090C                     	;# 
   338  1E8F                     	;# 
   339  1E90                     	;# 
   340  1E91                     	;# 
   341  1E92                     	;# 
   342  1E93                     	;# 
   343  1E9C                     	;# 
   344  1EA1                     	;# 
   345  1EA2                     	;# 
   346  1EC3                     	;# 
   347  1EC5                     	;# 
   348  1EC6                     	;# 
   349  1EC7                     	;# 
   350  1ECB                     	;# 
   351  1ECB                     	;# 
   352  1ECB                     	;# 
   353  1ECC                     	;# 
   354  1ECC                     	;# 
   355  1ECC                     	;# 
   356  1F10                     	;# 
   357  1F11                     	;# 
   358  1F12                     	;# 
   359  1F14                     	;# 
   360  1F15                     	;# 
   361  1F20                     	;# 
   362  1F21                     	;# 
   363  1F22                     	;# 
   364  1F23                     	;# 
   365  1F24                     	;# 
   366  1F25                     	;# 
   367  1F38                     	;# 
   368  1F39                     	;# 
   369  1F3A                     	;# 
   370  1F3B                     	;# 
   371  1F3C                     	;# 
   372  1F3D                     	;# 
   373  1F3E                     	;# 
   374  1F3F                     	;# 
   375  1F4E                     	;# 
   376  1F4F                     	;# 
   377  1F50                     	;# 
   378  1F51                     	;# 
   379  1F52                     	;# 
   380  1F53                     	;# 
   381  1F54                     	;# 
   382  1F55                     	;# 
   383  1FE4                     	;# 
   384  1FE5                     	;# 
   385  1FE6                     	;# 
   386  1FE7                     	;# 
   387  1FE8                     	;# 
   388  1FE8                     	;# 
   389  1FE9                     	;# 
   390  1FEA                     	;# 
   391  1FEB                     	;# 
   392  1FED                     	;# 
   393  1FEE                     	;# 
   394  1FEF                     	;# 
   395  0000                     	;# 
   396  0001                     	;# 
   397  0002                     	;# 
   398  0003                     	;# 
   399  0004                     	;# 
   400  0005                     	;# 
   401  0006                     	;# 
   402  0007                     	;# 
   403  0008                     	;# 
   404  0009                     	;# 
   405  000A                     	;# 
   406  000B                     	;# 
   407  000C                     	;# 
   408  000E                     	;# 
   409  0012                     	;# 
   410  0014                     	;# 
   411  0018                     	;# 
   412  001A                     	;# 
   413  009A                     	;# 
   414  009B                     	;# 
   415  009B                     	;# 
   416  009C                     	;# 
   417  009D                     	;# 
   418  009E                     	;# 
   419  009F                     	;# 
   420  010E                     	;# 
   421  010F                     	;# 
   422  0119                     	;# 
   423  011A                     	;# 
   424  011B                     	;# 
   425  011B                     	;# 
   426  011C                     	;# 
   427  011D                     	;# 
   428  011E                     	;# 
   429  011F                     	;# 
   430  018C                     	;# 
   431  018D                     	;# 
   432  018E                     	;# 
   433  018F                     	;# 
   434  0190                     	;# 
   435  0191                     	;# 
   436  0192                     	;# 
   437  020C                     	;# 
   438  020D                     	;# 
   439  020E                     	;# 
   440  020E                     	;# 
   441  020F                     	;# 
   442  020F                     	;# 
   443  0210                     	;# 
   444  0210                     	;# 
   445  0211                     	;# 
   446  0211                     	;# 
   447  028C                     	;# 
   448  028C                     	;# 
   449  028D                     	;# 
   450  028D                     	;# 
   451  028E                     	;# 
   452  028F                     	;# 
   453  0290                     	;# 
   454  0291                     	;# 
   455  030C                     	;# 
   456  030C                     	;# 
   457  030D                     	;# 
   458  030E                     	;# 
   459  030F                     	;# 
   460  0310                     	;# 
   461  0310                     	;# 
   462  0311                     	;# 
   463  0312                     	;# 
   464  0313                     	;# 
   465  0314                     	;# 
   466  0314                     	;# 
   467  0315                     	;# 
   468  0316                     	;# 
   469  0318                     	;# 
   470  0318                     	;# 
   471  0319                     	;# 
   472  031A                     	;# 
   473  059C                     	;# 
   474  059C                     	;# 
   475  059D                     	;# 
   476  059D                     	;# 
   477  059E                     	;# 
   478  059F                     	;# 
   479  070C                     	;# 
   480  070D                     	;# 
   481  070E                     	;# 
   482  0716                     	;# 
   483  0717                     	;# 
   484  0718                     	;# 
   485  080C                     	;# 
   486  0811                     	;# 
   487  0813                     	;# 
   488  0814                     	;# 
   489  081A                     	;# 
   490  081A                     	;# 
   491  081B                     	;# 
   492  081C                     	;# 
   493  081C                     	;# 
   494  081D                     	;# 
   495  081E                     	;# 
   496  081F                     	;# 
   497  088E                     	;# 
   498  0890                     	;# 
   499  0891                     	;# 
   500  0892                     	;# 
   501  0893                     	;# 
   502  090C                     	;# 
   503  1E8F                     	;# 
   504  1E90                     	;# 
   505  1E91                     	;# 
   506  1E92                     	;# 
   507  1E93                     	;# 
   508  1E9C                     	;# 
   509  1EA1                     	;# 
   510  1EA2                     	;# 
   511  1EC3                     	;# 
   512  1EC5                     	;# 
   513  1EC6                     	;# 
   514  1EC7                     	;# 
   515  1ECB                     	;# 
   516  1ECB                     	;# 
   517  1ECB                     	;# 
   518  1ECC                     	;# 
   519  1ECC                     	;# 
   520  1ECC                     	;# 
   521  1F10                     	;# 
   522  1F11                     	;# 
   523  1F12                     	;# 
   524  1F14                     	;# 
   525  1F15                     	;# 
   526  1F20                     	;# 
   527  1F21                     	;# 
   528  1F22                     	;# 
   529  1F23                     	;# 
   530  1F24                     	;# 
   531  1F25                     	;# 
   532  1F38                     	;# 
   533  1F39                     	;# 
   534  1F3A                     	;# 
   535  1F3B                     	;# 
   536  1F3C                     	;# 
   537  1F3D                     	;# 
   538  1F3E                     	;# 
   539  1F3F                     	;# 
   540  1F4E                     	;# 
   541  1F4F                     	;# 
   542  1F50                     	;# 
   543  1F51                     	;# 
   544  1F52                     	;# 
   545  1F53                     	;# 
   546  1F54                     	;# 
   547  1F55                     	;# 
   548  1FE4                     	;# 
   549  1FE5                     	;# 
   550  1FE6                     	;# 
   551  1FE7                     	;# 
   552  1FE8                     	;# 
   553  1FE8                     	;# 
   554  1FE9                     	;# 
   555  1FEA                     	;# 
   556  1FEB                     	;# 
   557  1FED                     	;# 
   558  1FEE                     	;# 
   559  1FEF                     	;# 
   560  0000                     	;# 
   561  0001                     	;# 
   562  0002                     	;# 
   563  0003                     	;# 
   564  0004                     	;# 
   565  0005                     	;# 
   566  0006                     	;# 
   567  0007                     	;# 
   568  0008                     	;# 
   569  0009                     	;# 
   570  000A                     	;# 
   571  000B                     	;# 
   572  000C                     	;# 
   573  000E                     	;# 
   574  0012                     	;# 
   575  0014                     	;# 
   576  0018                     	;# 
   577  001A                     	;# 
   578  009A                     	;# 
   579  009B                     	;# 
   580  009B                     	;# 
   581  009C                     	;# 
   582  009D                     	;# 
   583  009E                     	;# 
   584  009F                     	;# 
   585  010E                     	;# 
   586  010F                     	;# 
   587  0119                     	;# 
   588  011A                     	;# 
   589  011B                     	;# 
   590  011B                     	;# 
   591  011C                     	;# 
   592  011D                     	;# 
   593  011E                     	;# 
   594  011F                     	;# 
   595  018C                     	;# 
   596  018D                     	;# 
   597  018E                     	;# 
   598  018F                     	;# 
   599  0190                     	;# 
   600  0191                     	;# 
   601  0192                     	;# 
   602  020C                     	;# 
   603  020D                     	;# 
   604  020E                     	;# 
   605  020E                     	;# 
   606  020F                     	;# 
   607  020F                     	;# 
   608  0210                     	;# 
   609  0210                     	;# 
   610  0211                     	;# 
   611  0211                     	;# 
   612  028C                     	;# 
   613  028C                     	;# 
   614  028D                     	;# 
   615  028D                     	;# 
   616  028E                     	;# 
   617  028F                     	;# 
   618  0290                     	;# 
   619  0291                     	;# 
   620  030C                     	;# 
   621  030C                     	;# 
   622  030D                     	;# 
   623  030E                     	;# 
   624  030F                     	;# 
   625  0310                     	;# 
   626  0310                     	;# 
   627  0311                     	;# 
   628  0312                     	;# 
   629  0313                     	;# 
   630  0314                     	;# 
   631  0314                     	;# 
   632  0315                     	;# 
   633  0316                     	;# 
   634  0318                     	;# 
   635  0318                     	;# 
   636  0319                     	;# 
   637  031A                     	;# 
   638  059C                     	;# 
   639  059C                     	;# 
   640  059D                     	;# 
   641  059D                     	;# 
   642  059E                     	;# 
   643  059F                     	;# 
   644  070C                     	;# 
   645  070D                     	;# 
   646  070E                     	;# 
   647  0716                     	;# 
   648  0717                     	;# 
   649  0718                     	;# 
   650  080C                     	;# 
   651  0811                     	;# 
   652  0813                     	;# 
   653  0814                     	;# 
   654  081A                     	;# 
   655  081A                     	;# 
   656  081B                     	;# 
   657  081C                     	;# 
   658  081C                     	;# 
   659  081D                     	;# 
   660  081E                     	;# 
   661  081F                     	;# 
   662  088E                     	;# 
   663  0890                     	;# 
   664  0891                     	;# 
   665  0892                     	;# 
   666  0893                     	;# 
   667  090C                     	;# 
   668  1E8F                     	;# 
   669  1E90                     	;# 
   670  1E91                     	;# 
   671  1E92                     	;# 
   672  1E93                     	;# 
   673  1E9C                     	;# 
   674  1EA1                     	;# 
   675  1EA2                     	;# 
   676  1EC3                     	;# 
   677  1EC5                     	;# 
   678  1EC6                     	;# 
   679  1EC7                     	;# 
   680  1ECB                     	;# 
   681  1ECB                     	;# 
   682  1ECB                     	;# 
   683  1ECC                     	;# 
   684  1ECC                     	;# 
   685  1ECC                     	;# 
   686  1F10                     	;# 
   687  1F11                     	;# 
   688  1F12                     	;# 
   689  1F14                     	;# 
   690  1F15                     	;# 
   691  1F20                     	;# 
   692  1F21                     	;# 
   693  1F22                     	;# 
   694  1F23                     	;# 
   695  1F24                     	;# 
   696  1F25                     	;# 
   697  1F38                     	;# 
   698  1F39                     	;# 
   699  1F3A                     	;# 
   700  1F3B                     	;# 
   701  1F3C                     	;# 
   702  1F3D                     	;# 
   703  1F3E                     	;# 
   704  1F3F                     	;# 
   705  1F4E                     	;# 
   706  1F4F                     	;# 
   707  1F50                     	;# 
   708  1F51                     	;# 
   709  1F52                     	;# 
   710  1F53                     	;# 
   711  1F54                     	;# 
   712  1F55                     	;# 
   713  1FE4                     	;# 
   714  1FE5                     	;# 
   715  1FE6                     	;# 
   716  1FE7                     	;# 
   717  1FE8                     	;# 
   718  1FE8                     	;# 
   719  1FE9                     	;# 
   720  1FEA                     	;# 
   721  1FEB                     	;# 
   722  1FED                     	;# 
   723  1FEE                     	;# 
   724  1FEF                     	;# 
   725  0000                     	;# 
   726  0001                     	;# 
   727  0002                     	;# 
   728  0003                     	;# 
   729  0004                     	;# 
   730  0005                     	;# 
   731  0006                     	;# 
   732  0007                     	;# 
   733  0008                     	;# 
   734  0009                     	;# 
   735  000A                     	;# 
   736  000B                     	;# 
   737  000C                     	;# 
   738  000E                     	;# 
   739  0012                     	;# 
   740  0014                     	;# 
   741  0018                     	;# 
   742  001A                     	;# 
   743  009A                     	;# 
   744  009B                     	;# 
   745  009B                     	;# 
   746  009C                     	;# 
   747  009D                     	;# 
   748  009E                     	;# 
   749  009F                     	;# 
   750  010E                     	;# 
   751  010F                     	;# 
   752  0119                     	;# 
   753  011A                     	;# 
   754  011B                     	;# 
   755  011B                     	;# 
   756  011C                     	;# 
   757  011D                     	;# 
   758  011E                     	;# 
   759  011F                     	;# 
   760  018C                     	;# 
   761  018D                     	;# 
   762  018E                     	;# 
   763  018F                     	;# 
   764  0190                     	;# 
   765  0191                     	;# 
   766  0192                     	;# 
   767  020C                     	;# 
   768  020D                     	;# 
   769  020E                     	;# 
   770  020E                     	;# 
   771  020F                     	;# 
   772  020F                     	;# 
   773  0210                     	;# 
   774  0210                     	;# 
   775  0211                     	;# 
   776  0211                     	;# 
   777  028C                     	;# 
   778  028C                     	;# 
   779  028D                     	;# 
   780  028D                     	;# 
   781  028E                     	;# 
   782  028F                     	;# 
   783  0290                     	;# 
   784  0291                     	;# 
   785  030C                     	;# 
   786  030C                     	;# 
   787  030D                     	;# 
   788  030E                     	;# 
   789  030F                     	;# 
   790  0310                     	;# 
   791  0310                     	;# 
   792  0311                     	;# 
   793  0312                     	;# 
   794  0313                     	;# 
   795  0314                     	;# 
   796  0314                     	;# 
   797  0315                     	;# 
   798  0316                     	;# 
   799  0318                     	;# 
   800  0318                     	;# 
   801  0319                     	;# 
   802  031A                     	;# 
   803  059C                     	;# 
   804  059C                     	;# 
   805  059D                     	;# 
   806  059D                     	;# 
   807  059E                     	;# 
   808  059F                     	;# 
   809  070C                     	;# 
   810  070D                     	;# 
   811  070E                     	;# 
   812  0716                     	;# 
   813  0717                     	;# 
   814  0718                     	;# 
   815  080C                     	;# 
   816  0811                     	;# 
   817  0813                     	;# 
   818  0814                     	;# 
   819  081A                     	;# 
   820  081A                     	;# 
   821  081B                     	;# 
   822  081C                     	;# 
   823  081C                     	;# 
   824  081D                     	;# 
   825  081E                     	;# 
   826  081F                     	;# 
   827  088E                     	;# 
   828  0890                     	;# 
   829  0891                     	;# 
   830  0892                     	;# 
   831  0893                     	;# 
   832  090C                     	;# 
   833  1E8F                     	;# 
   834  1E90                     	;# 
   835  1E91                     	;# 
   836  1E92                     	;# 
   837  1E93                     	;# 
   838  1E9C                     	;# 
   839  1EA1                     	;# 
   840  1EA2                     	;# 
   841  1EC3                     	;# 
   842  1EC5                     	;# 
   843  1EC6                     	;# 
   844  1EC7                     	;# 
   845  1ECB                     	;# 
   846  1ECB                     	;# 
   847  1ECB                     	;# 
   848  1ECC                     	;# 
   849  1ECC                     	;# 
   850  1ECC                     	;# 
   851  1F10                     	;# 
   852  1F11                     	;# 
   853  1F12                     	;# 
   854  1F14                     	;# 
   855  1F15                     	;# 
   856  1F20                     	;# 
   857  1F21                     	;# 
   858  1F22                     	;# 
   859  1F23                     	;# 
   860  1F24                     	;# 
   861  1F25                     	;# 
   862  1F38                     	;# 
   863  1F39                     	;# 
   864  1F3A                     	;# 
   865  1F3B                     	;# 
   866  1F3C                     	;# 
   867  1F3D                     	;# 
   868  1F3E                     	;# 
   869  1F3F                     	;# 
   870  1F4E                     	;# 
   871  1F4F                     	;# 
   872  1F50                     	;# 
   873  1F51                     	;# 
   874  1F52                     	;# 
   875  1F53                     	;# 
   876  1F54                     	;# 
   877  1F55                     	;# 
   878  1FE4                     	;# 
   879  1FE5                     	;# 
   880  1FE6                     	;# 
   881  1FE7                     	;# 
   882  1FE8                     	;# 
   883  1FE8                     	;# 
   884  1FE9                     	;# 
   885  1FEA                     	;# 
   886  1FEB                     	;# 
   887  1FED                     	;# 
   888  1FEE                     	;# 
   889  1FEF                     	;# 
   890                           
   891                           	psect	stringtext1
   892  0112                     __pstringtext1:
   893  0112                     _ledPeriod:
   894  0112  34F4               	retlw	244
   895  0113  3401               	retlw	1
   896  0114                     __end_of_ledPeriod:
   897                           
   898                           	psect	stringtext2
   899  0114                     __pstringtext2:
   900  0114                     _tankFillTime:
   901  0114  3488               	retlw	136
   902  0115  3413               	retlw	19
   903  0116                     __end_of_tankFillTime:
   904                           
   905                           	psect	nvCOMMON
   906  0075                     __pnvCOMMON:
   907  0075                     _TMR0_InterruptHandler:
   908  0075                     	ds	2
   909  0077                     _IOCCF2_InterruptHandler:
   910  0077                     	ds	2
   911  001A                     _LATCbits	set	26
   912  0018                     _LATAbits	set	24
   913  000E                     _PORTCbits	set	14
   914  000C                     _PORTAbits	set	12
   915  000B                     _INTCONbits	set	11
   916  0014                     _TRISC	set	20
   917  0012                     _TRISA	set	18
   918  001A                     _LATC	set	26
   919  0018                     _LATA	set	24
   920  059E                     _T0CON0bits	set	1438
   921  059E                     _T0CON0	set	1438
   922  059C                     _TMR0L	set	1436
   923  059D                     _TMR0H	set	1437
   924  059F                     _T0CON1	set	1439
   925  070C                     _PIR0bits	set	1804
   926  0716                     _PIE0bits	set	1814
   927  080C                     _WDTCON	set	2060
   928  0892                     _OSCTUNE	set	2194
   929  0893                     _OSCFRQ	set	2195
   930  0891                     _OSCEN	set	2193
   931  1F53                     _IOCCPbits	set	8019
   932  1F54                     _IOCCNbits	set	8020
   933  1F55                     _IOCCFbits	set	8021
   934  1F52                     _INLVLC	set	8018
   935  1F3C                     _INLVLA	set	7996
   936  1F51                     _SLRCONC	set	8017
   937  1F3B                     _SLRCONA	set	7995
   938  1F50                     _ODCONC	set	8016
   939  1F3A                     _ODCONA	set	7994
   940  1F4F                     _WPUC	set	8015
   941  1F39                     _WPUA	set	7993
   942  1F38                     _ANSELA	set	7992
   943  1F4E                     _ANSELC	set	8014
   944                           
   945                           	psect	cinit
   946  0021                     start_initialization:	
   947                           ; #config settings
   948                           
   949  0021                     __initialization:
   950                           
   951                           ; Clear objects allocated to COMMON
   952  0021  01F0               	clrf	__pbssCOMMON& (0+127)
   953  0022  01F1               	clrf	(__pbssCOMMON+1)& (0+127)
   954  0023  01F2               	clrf	(__pbssCOMMON+2)& (0+127)
   955  0024  01F3               	clrf	(__pbssCOMMON+3)& (0+127)
   956  0025  01F4               	clrf	(__pbssCOMMON+4)& (0+127)
   957  0026                     end_of_initialization:	
   958                           ;End of C runtime variable initialization code
   959                           
   960  0026                     __end_of__initialization:
   961  0026  107E               	bcf	int$flags,0	;clear compiler interrupt flag (level 1)
   962  0027  0140               	movlb	0
   963  0028  2829               	ljmp	_main	;jump to C main() function
   964                           
   965                           	psect	bssCOMMON
   966  0070                     __pbssCOMMON:
   967  0070                     _ledCounter:
   968  0070                     	ds	2
   969  0072                     _pumpCounter:
   970  0072                     	ds	2
   971  0074                     _pumpState:
   972  0074                     	ds	1
   973                           
   974                           	psect	cstackCOMMON
   975  0079                     __pcstackCOMMON:
   976  0079                     ?_PIN_MANAGER_Initialize:
   977  0079                     ?_OSCILLATOR_Initialize:	
   978                           ; 1 bytes @ 0x0
   979                           
   980  0079                     ??_OSCILLATOR_Initialize:	
   981                           ; 1 bytes @ 0x0
   982                           
   983  0079                     ?_WDT_Initialize:	
   984                           ; 1 bytes @ 0x0
   985                           
   986  0079                     ??_WDT_Initialize:	
   987                           ; 1 bytes @ 0x0
   988                           
   989  0079                     ?_TMR0_Initialize:	
   990                           ; 1 bytes @ 0x0
   991                           
   992  0079                     ?_IOCCF2_SetInterruptHandler:	
   993                           ; 1 bytes @ 0x0
   994                           
   995  0079                     ?_IOCCF2_DefaultInterruptHandler:	
   996                           ; 1 bytes @ 0x0
   997                           
   998  0079                     ??_IOCCF2_DefaultInterruptHandler:	
   999                           ; 1 bytes @ 0x0
  1000                           
  1001  0079                     ?_IOCCF2_ISR:	
  1002                           ; 1 bytes @ 0x0
  1003                           
  1004  0079                     ??_IOCCF2_ISR:	
  1005                           ; 1 bytes @ 0x0
  1006                           
  1007  0079                     ?_TMR0_SetInterruptHandler:	
  1008                           ; 1 bytes @ 0x0
  1009                           
  1010  0079                     ?_TMR0_DefaultInterruptHandler:	
  1011                           ; 1 bytes @ 0x0
  1012                           
  1013  0079                     ??_TMR0_DefaultInterruptHandler:	
  1014                           ; 1 bytes @ 0x0
  1015                           
  1016  0079                     ?_timer0ISR:	
  1017                           ; 1 bytes @ 0x0
  1018                           
  1019  0079                     ??_timer0ISR:	
  1020                           ; 1 bytes @ 0x0
  1021                           
  1022  0079                     ?_levelSwISR:	
  1023                           ; 1 bytes @ 0x0
  1024                           
  1025  0079                     ??_levelSwISR:	
  1026                           ; 1 bytes @ 0x0
  1027                           
  1028  0079                     ?_SYSTEM_Initialize:	
  1029                           ; 1 bytes @ 0x0
  1030                           
  1031  0079                     ?_PIN_MANAGER_IOC:	
  1032                           ; 1 bytes @ 0x0
  1033                           
  1034  0079                     ??_PIN_MANAGER_IOC:	
  1035                           ; 1 bytes @ 0x0
  1036                           
  1037  0079                     ?_TMR0_StartTimer:	
  1038                           ; 1 bytes @ 0x0
  1039                           
  1040  0079                     ??_TMR0_StartTimer:	
  1041                           ; 1 bytes @ 0x0
  1042                           
  1043  0079                     ?_TMR0_ISR:	
  1044                           ; 1 bytes @ 0x0
  1045                           
  1046  0079                     ??_TMR0_ISR:	
  1047                           ; 1 bytes @ 0x0
  1048                           
  1049  0079                     ?_INTERRUPT_InterruptManager:	
  1050                           ; 1 bytes @ 0x0
  1051                           
  1052  0079                     ??_INTERRUPT_InterruptManager:	
  1053                           ; 1 bytes @ 0x0
  1054                           
  1055  0079                     ?_main:	
  1056                           ; 1 bytes @ 0x0
  1057                           
  1058  0079                     IOCCF2_SetInterruptHandler@InterruptHandler:	
  1059                           ; 1 bytes @ 0x0
  1060                           
  1061  0079                     TMR0_SetInterruptHandler@InterruptHandler:	
  1062                           ; 2 bytes @ 0x0
  1063                           
  1064                           
  1065                           ; 2 bytes @ 0x0
  1066  0079                     	ds	2
  1067  007B                     ??_PIN_MANAGER_Initialize:
  1068  007B                     ??_TMR0_Initialize:	
  1069                           ; 1 bytes @ 0x2
  1070                           
  1071  007B                     ??_IOCCF2_SetInterruptHandler:	
  1072                           ; 1 bytes @ 0x2
  1073                           
  1074  007B                     ??_TMR0_SetInterruptHandler:	
  1075                           ; 1 bytes @ 0x2
  1076                           
  1077  007B                     ??_SYSTEM_Initialize:	
  1078                           ; 1 bytes @ 0x2
  1079                           
  1080  007B                     ??_main:	
  1081                           ; 1 bytes @ 0x2
  1082                           
  1083                           
  1084                           	psect	maintext
  1085  0029                     __pmaintext:	
  1086                           ; 1 bytes @ 0x2
  1087 ;;
  1088 ;;Main: autosize = 0, tempsize = 0, incstack = 0, save=0
  1089 ;;
  1090 ;; *************** function _main *****************
  1091 ;; Defined at:
  1092 ;;		line 15 in file "main.c"
  1093 ;; Parameters:    Size  Location     Type
  1094 ;;		None
  1095 ;; Auto vars:     Size  Location     Type
  1096 ;;		None
  1097 ;; Return value:  Size  Location     Type
  1098 ;;                  1    wreg      void 
  1099 ;; Registers used:
  1100 ;;		wreg, status,2, status,0, pclath, cstack
  1101 ;; Tracked objects:
  1102 ;;		On entry : B3F/0
  1103 ;;		On exit  : 0/0
  1104 ;;		Unchanged: 0/0
  1105 ;; Data sizes:     COMMON   BANK0   BANK1   BANK2
  1106 ;;      Params:         0       0       0       0
  1107 ;;      Locals:         0       0       0       0
  1108 ;;      Temps:          0       0       0       0
  1109 ;;      Totals:         0       0       0       0
  1110 ;;Total ram usage:        0 bytes
  1111 ;; Hardware stack levels required when called: 7
  1112 ;; This function calls:
  1113 ;;		_IOCCF2_SetInterruptHandler
  1114 ;;		_SYSTEM_Initialize
  1115 ;;		_TMR0_SetInterruptHandler
  1116 ;;		_TMR0_StartTimer
  1117 ;; This function is called by:
  1118 ;;		Startup code after reset
  1119 ;; This function uses a non-reentrant model
  1120 ;;
  1121                           
  1122  0029                     _main:	
  1123                           ;psect for function _main
  1124                           
  1125  0029                     l929:	
  1126                           ;incstack = 0
  1127                           ; Regs used in _main: [wreg+status,2+status,0+pclath+cstack]
  1128                           
  1129                           
  1130                           ;main.c: 18:     SYSTEM_Initialize();
  1131  0029  3180  20E0  3180   	fcall	_SYSTEM_Initialize
  1132  002C                     l931:
  1133                           
  1134                           ;main.c: 21:     (INTCONbits.GIE = 1);
  1135  002C  178B               	bsf	11,7	;volatile
  1136  002D                     l933:
  1137                           
  1138                           ;main.c: 24:     (INTCONbits.PEIE = 1);
  1139  002D  170B               	bsf	11,6	;volatile
  1140                           
  1141                           ;main.c: 27:     TMR0_SetInterruptHandler(timer0ISR);
  1142  002E  3098               	movlw	low _timer0ISR
  1143  002F  00F9               	movwf	TMR0_SetInterruptHandler@InterruptHandler
  1144  0030  3000               	movlw	high _timer0ISR
  1145  0031  00FA               	movwf	TMR0_SetInterruptHandler@InterruptHandler+1
  1146  0032  3180  20FD  3180   	fcall	_TMR0_SetInterruptHandler
  1147                           
  1148                           ;main.c: 28:     IOCCF2_SetInterruptHandler(levelSwISR);
  1149  0035  30F6               	movlw	low _levelSwISR
  1150  0036  00F9               	movwf	IOCCF2_SetInterruptHandler@InterruptHandler
  1151  0037  3000               	movlw	high _levelSwISR
  1152  0038  00FA               	movwf	IOCCF2_SetInterruptHandler@InterruptHandler+1
  1153  0039  3181  2102  3180   	fcall	_IOCCF2_SetInterruptHandler
  1154  003C                     l935:
  1155                           
  1156                           ;main.c: 30:     TMR0_StartTimer();
  1157  003C  3181  210C  3180   	fcall	_TMR0_StartTimer
  1158  003F                     l937:
  1159                           
  1160                           ;main.c: 33:     {;main.c: 35:         if((pumpState || !PORTAbits.RA4) && !PORTCbits.RC
      +                          1)
  1161  003F  0874               	movf	_pumpState,w
  1162  0040  1D03               	btfss	3,2
  1163  0041  2843               	goto	u171
  1164  0042  2844               	goto	u170
  1165  0043                     u171:
  1166  0043  2849               	goto	l191
  1167  0044                     u170:
  1168  0044                     l939:
  1169  0044  0140               	movlb	0	; select bank0
  1170  0045  1A0C               	btfsc	12,4	;volatile
  1171  0046  2848               	goto	u181
  1172  0047  2849               	goto	u180
  1173  0048                     u181:
  1174  0048  2867               	goto	l200
  1175  0049                     u180:
  1176  0049                     l191:
  1177  0049  0140               	movlb	0	; select bank0
  1178  004A  188E               	btfsc	14,1	;volatile
  1179  004B  284D               	goto	u191
  1180  004C  284E               	goto	u190
  1181  004D                     u191:
  1182  004D  2867               	goto	l200
  1183  004E                     u190:
  1184  004E                     l192:	
  1185                           ;main.c: 36:         {;main.c: 37:             do { LATAbits.LATA5 = 1; } while(0);
  1186                           
  1187  004E  1698               	bsf	24,5	;volatile
  1188  004F                     l194:	
  1189                           ;main.c: 38:             do { LATAbits.LATA2 = 1; } while(0);
  1190                           
  1191  004F  1518               	bsf	24,2	;volatile
  1192  0050                     l941:
  1193                           
  1194                           ;main.c: 40:             if(ledCounter > ledPeriod)
  1195  0050  3001               	movlw	1
  1196  0051  0271               	subwf	_ledCounter+1,w
  1197  0052  30F5               	movlw	245
  1198  0053  1903               	skipnz
  1199  0054  0270               	subwf	_ledCounter,w
  1200  0055  1C03               	skipc
  1201  0056  2858               	goto	u201
  1202  0057  2859               	goto	u200
  1203  0058                     u201:
  1204  0058  283F               	goto	l937
  1205  0059                     u200:
  1206  0059                     l943:
  1207  0059  1003               	clrc
  1208  005A  1C1A               	btfss	26,0	;volatile
  1209  005B  1403               	setc
  1210  005C  1803               	btfsc	3,0
  1211  005D  285F               	goto	u211
  1212  005E  2862               	goto	u210
  1213  005F                     u211:
  1214  005F  0140               	movlb	0	; select bank0
  1215  0060  141A               	bsf	26,0	;volatile
  1216  0061  2864               	goto	u224
  1217  0062                     u210:
  1218  0062  0140               	movlb	0	; select bank0
  1219  0063  101A               	bcf	26,0	;volatile
  1220  0064                     u224:
  1221  0064                     l945:
  1222                           
  1223                           ;main.c: 43:                 ledCounter = 0;
  1224  0064  01F0               	clrf	_ledCounter
  1225  0065  01F1               	clrf	_ledCounter+1
  1226  0066  283F               	goto	l937
  1227  0067                     l200:	
  1228                           ;main.c: 48:         {;main.c: 49:             do { LATAbits.LATA5 = 0; } while(0);
  1229                           
  1230  0067  1298               	bcf	24,5	;volatile
  1231  0068                     l202:	
  1232                           ;main.c: 50:             do { LATAbits.LATA2 = 0; } while(0);
  1233                           
  1234  0068  1118               	bcf	24,2	;volatile
  1235  0069                     l203:
  1236                           
  1237                           ;main.c: 52:             if(!PORTCbits.RC1)
  1238  0069  188E               	btfsc	14,1	;volatile
  1239  006A  286C               	goto	u231
  1240  006B  286D               	goto	u230
  1241  006C                     u231:
  1242  006C  286F               	goto	l208
  1243  006D                     u230:
  1244  006D                     l205:	
  1245                           ;main.c: 53:             {;main.c: 54:                 do { LATCbits.LATC0 = 1; } while(
      +                          0);
  1246                           
  1247  006D  141A               	bsf	26,0	;volatile
  1248  006E  283F               	goto	l937
  1249  006F                     l208:	
  1250                           ;main.c: 57:             {;main.c: 58:                 do { LATCbits.LATC0 = 0; } while(
      +                          0);
  1251                           
  1252  006F  101A               	bcf	26,0	;volatile
  1253  0070  283F               	goto	l937
  1254  0071  2820               	ljmp	start
  1255  0072                     __end_of_main:
  1256                           
  1257                           	psect	text1
  1258  010C                     __ptext1:	
  1259 ;; *************** function _TMR0_StartTimer *****************
  1260 ;; Defined at:
  1261 ;;		line 87 in file "mcc_generated_files/tmr0.c"
  1262 ;; Parameters:    Size  Location     Type
  1263 ;;		None
  1264 ;; Auto vars:     Size  Location     Type
  1265 ;;		None
  1266 ;; Return value:  Size  Location     Type
  1267 ;;                  1    wreg      void 
  1268 ;; Registers used:
  1269 ;;		None
  1270 ;; Tracked objects:
  1271 ;;		On entry : 0/0
  1272 ;;		On exit  : 0/0
  1273 ;;		Unchanged: 0/0
  1274 ;; Data sizes:     COMMON   BANK0   BANK1   BANK2
  1275 ;;      Params:         0       0       0       0
  1276 ;;      Locals:         0       0       0       0
  1277 ;;      Temps:          0       0       0       0
  1278 ;;      Totals:         0       0       0       0
  1279 ;;Total ram usage:        0 bytes
  1280 ;; Hardware stack levels used: 1
  1281 ;; Hardware stack levels required when called: 4
  1282 ;; This function calls:
  1283 ;;		Nothing
  1284 ;; This function is called by:
  1285 ;;		_main
  1286 ;; This function uses a non-reentrant model
  1287 ;;
  1288                           
  1289  010C                     _TMR0_StartTimer:	
  1290                           ;psect for function _TMR0_StartTimer
  1291                           
  1292  010C                     l827:	
  1293                           ;incstack = 0
  1294                           ; Regs used in _TMR0_StartTimer: []
  1295                           
  1296                           
  1297                           ;mcc_generated_files/tmr0.c: 90:     T0CON0bits.T0EN = 1;
  1298  010C  014B               	movlb	11	; select bank11
  1299  010D  179E               	bsf	30,7	;volatile
  1300  010E                     l112:
  1301  010E  0008               	return
  1302  010F                     __end_of_TMR0_StartTimer:
  1303                           
  1304                           	psect	text2
  1305  00E0                     __ptext2:	
  1306 ;; *************** function _SYSTEM_Initialize *****************
  1307 ;; Defined at:
  1308 ;;		line 50 in file "mcc_generated_files/mcc.c"
  1309 ;; Parameters:    Size  Location     Type
  1310 ;;		None
  1311 ;; Auto vars:     Size  Location     Type
  1312 ;;		None
  1313 ;; Return value:  Size  Location     Type
  1314 ;;                  1    wreg      void 
  1315 ;; Registers used:
  1316 ;;		wreg, status,2, status,0, pclath, cstack
  1317 ;; Tracked objects:
  1318 ;;		On entry : 0/0
  1319 ;;		On exit  : 0/0
  1320 ;;		Unchanged: 0/0
  1321 ;; Data sizes:     COMMON   BANK0   BANK1   BANK2
  1322 ;;      Params:         0       0       0       0
  1323 ;;      Locals:         0       0       0       0
  1324 ;;      Temps:          0       0       0       0
  1325 ;;      Totals:         0       0       0       0
  1326 ;;Total ram usage:        0 bytes
  1327 ;; Hardware stack levels used: 1
  1328 ;; Hardware stack levels required when called: 6
  1329 ;; This function calls:
  1330 ;;		_OSCILLATOR_Initialize
  1331 ;;		_PIN_MANAGER_Initialize
  1332 ;;		_TMR0_Initialize
  1333 ;;		_WDT_Initialize
  1334 ;; This function is called by:
  1335 ;;		_main
  1336 ;; This function uses a non-reentrant model
  1337 ;;
  1338                           
  1339  00E0                     _SYSTEM_Initialize:	
  1340                           ;psect for function _SYSTEM_Initialize
  1341                           
  1342  00E0                     l923:	
  1343                           ;incstack = 0
  1344                           ; Regs used in _SYSTEM_Initialize: [wreg+status,2+status,0+pclath+cstack]
  1345                           
  1346                           
  1347                           ;mcc_generated_files/mcc.c: 53:     PIN_MANAGER_Initialize();
  1348  00E0  3180  2072  3180   	fcall	_PIN_MANAGER_Initialize
  1349  00E3                     l925:
  1350                           
  1351                           ;mcc_generated_files/mcc.c: 54:     OSCILLATOR_Initialize();
  1352  00E3  3181  2107  3180   	fcall	_OSCILLATOR_Initialize
  1353  00E6                     l927:
  1354                           
  1355                           ;mcc_generated_files/mcc.c: 55:     WDT_Initialize();
  1356  00E6  3181  210F  3180   	fcall	_WDT_Initialize
  1357                           
  1358                           ;mcc_generated_files/mcc.c: 56:     TMR0_Initialize();
  1359  00E9  3180  20B0  3180   	fcall	_TMR0_Initialize
  1360  00EC                     l19:
  1361  00EC  0008               	return
  1362  00ED                     __end_of_SYSTEM_Initialize:
  1363                           
  1364                           	psect	text3
  1365  010F                     __ptext3:	
  1366 ;; *************** function _WDT_Initialize *****************
  1367 ;; Defined at:
  1368 ;;		line 69 in file "mcc_generated_files/mcc.c"
  1369 ;; Parameters:    Size  Location     Type
  1370 ;;		None
  1371 ;; Auto vars:     Size  Location     Type
  1372 ;;		None
  1373 ;; Return value:  Size  Location     Type
  1374 ;;                  1    wreg      void 
  1375 ;; Registers used:
  1376 ;;		status,2
  1377 ;; Tracked objects:
  1378 ;;		On entry : 0/0
  1379 ;;		On exit  : 0/0
  1380 ;;		Unchanged: 0/0
  1381 ;; Data sizes:     COMMON   BANK0   BANK1   BANK2
  1382 ;;      Params:         0       0       0       0
  1383 ;;      Locals:         0       0       0       0
  1384 ;;      Temps:          0       0       0       0
  1385 ;;      Totals:         0       0       0       0
  1386 ;;Total ram usage:        0 bytes
  1387 ;; Hardware stack levels used: 1
  1388 ;; Hardware stack levels required when called: 4
  1389 ;; This function calls:
  1390 ;;		Nothing
  1391 ;; This function is called by:
  1392 ;;		_SYSTEM_Initialize
  1393 ;; This function uses a non-reentrant model
  1394 ;;
  1395                           
  1396  010F                     _WDT_Initialize:	
  1397                           ;psect for function _WDT_Initialize
  1398                           
  1399  010F                     l789:	
  1400                           ;incstack = 0
  1401                           ; Regs used in _WDT_Initialize: [status,2]
  1402                           
  1403                           
  1404                           ;mcc_generated_files/mcc.c: 72:     WDTCON = 0x00;
  1405  010F  0150               	movlb	16	; select bank16
  1406  0110  018C               	clrf	12	;volatile
  1407  0111                     l25:
  1408  0111  0008               	return
  1409  0112                     __end_of_WDT_Initialize:
  1410                           
  1411                           	psect	text4
  1412  00B0                     __ptext4:	
  1413 ;; *************** function _TMR0_Initialize *****************
  1414 ;; Defined at:
  1415 ;;		line 61 in file "mcc_generated_files/tmr0.c"
  1416 ;; Parameters:    Size  Location     Type
  1417 ;;		None
  1418 ;; Auto vars:     Size  Location     Type
  1419 ;;		None
  1420 ;; Return value:  Size  Location     Type
  1421 ;;                  1    wreg      void 
  1422 ;; Registers used:
  1423 ;;		wreg, status,2, status,0, pclath, cstack
  1424 ;; Tracked objects:
  1425 ;;		On entry : 0/0
  1426 ;;		On exit  : 0/0
  1427 ;;		Unchanged: 0/0
  1428 ;; Data sizes:     COMMON   BANK0   BANK1   BANK2
  1429 ;;      Params:         0       0       0       0
  1430 ;;      Locals:         0       0       0       0
  1431 ;;      Temps:          0       0       0       0
  1432 ;;      Totals:         0       0       0       0
  1433 ;;Total ram usage:        0 bytes
  1434 ;; Hardware stack levels used: 1
  1435 ;; Hardware stack levels required when called: 5
  1436 ;; This function calls:
  1437 ;;		_TMR0_SetInterruptHandler
  1438 ;; This function is called by:
  1439 ;;		_SYSTEM_Initialize
  1440 ;; This function uses a non-reentrant model
  1441 ;;
  1442                           
  1443  00B0                     _TMR0_Initialize:	
  1444                           ;psect for function _TMR0_Initialize
  1445                           
  1446  00B0                     l911:	
  1447                           ;incstack = 0
  1448                           ; Regs used in _TMR0_Initialize: [wreg+status,2+status,0+pclath+cstack]
  1449                           
  1450                           
  1451                           ;mcc_generated_files/tmr0.c: 66:     T0CON1 = 0x50;
  1452  00B0  3050               	movlw	80
  1453  00B1  014B               	movlb	11	; select bank11
  1454  00B2  009F               	movwf	31	;volatile
  1455                           
  1456                           ;mcc_generated_files/tmr0.c: 69:     TMR0H = 0xF9;
  1457  00B3  30F9               	movlw	249
  1458  00B4  009D               	movwf	29	;volatile
  1459  00B5                     l913:
  1460                           
  1461                           ;mcc_generated_files/tmr0.c: 72:     TMR0L = 0x00;
  1462  00B5  019C               	clrf	28	;volatile
  1463  00B6                     l915:
  1464                           
  1465                           ;mcc_generated_files/tmr0.c: 75:     PIR0bits.TMR0IF = 0;
  1466  00B6  014E               	movlb	14	; select bank14
  1467  00B7  128C               	bcf	12,5	;volatile
  1468  00B8                     l917:
  1469                           
  1470                           ;mcc_generated_files/tmr0.c: 78:     PIE0bits.TMR0IE = 1;
  1471  00B8  1696               	bsf	22,5	;volatile
  1472  00B9                     l919:
  1473                           
  1474                           ;mcc_generated_files/tmr0.c: 81:     TMR0_SetInterruptHandler(TMR0_DefaultInterruptHandl
      +                          er);
  1475  00B9  3016               	movlw	low _TMR0_DefaultInterruptHandler
  1476  00BA  00F9               	movwf	TMR0_SetInterruptHandler@InterruptHandler
  1477  00BB  3001               	movlw	high _TMR0_DefaultInterruptHandler
  1478  00BC  00FA               	movwf	TMR0_SetInterruptHandler@InterruptHandler+1
  1479  00BD  3180  20FD  3180   	fcall	_TMR0_SetInterruptHandler
  1480  00C0                     l921:
  1481                           
  1482                           ;mcc_generated_files/tmr0.c: 84:     T0CON0 = 0x80;
  1483  00C0  3080               	movlw	128
  1484  00C1  014B               	movlb	11	; select bank11
  1485  00C2  009E               	movwf	30	;volatile
  1486  00C3                     l109:
  1487  00C3  0008               	return
  1488  00C4                     __end_of_TMR0_Initialize:
  1489                           
  1490                           	psect	text5
  1491  00FD                     __ptext5:	
  1492 ;; *************** function _TMR0_SetInterruptHandler *****************
  1493 ;; Defined at:
  1494 ;;		line 134 in file "mcc_generated_files/tmr0.c"
  1495 ;; Parameters:    Size  Location     Type
  1496 ;;  InterruptHan    2    0[COMMON] PTR FTN()void 
  1497 ;;		 -> timer0ISR(1), TMR0_DefaultInterruptHandler(1), 
  1498 ;; Auto vars:     Size  Location     Type
  1499 ;;		None
  1500 ;; Return value:  Size  Location     Type
  1501 ;;                  1    wreg      void 
  1502 ;; Registers used:
  1503 ;;		wreg
  1504 ;; Tracked objects:
  1505 ;;		On entry : 0/0
  1506 ;;		On exit  : 0/0
  1507 ;;		Unchanged: 0/0
  1508 ;; Data sizes:     COMMON   BANK0   BANK1   BANK2
  1509 ;;      Params:         2       0       0       0
  1510 ;;      Locals:         0       0       0       0
  1511 ;;      Temps:          0       0       0       0
  1512 ;;      Totals:         2       0       0       0
  1513 ;;Total ram usage:        2 bytes
  1514 ;; Hardware stack levels used: 1
  1515 ;; Hardware stack levels required when called: 4
  1516 ;; This function calls:
  1517 ;;		Nothing
  1518 ;; This function is called by:
  1519 ;;		_TMR0_Initialize
  1520 ;;		_main
  1521 ;; This function uses a non-reentrant model
  1522 ;;
  1523                           
  1524  00FD                     _TMR0_SetInterruptHandler:	
  1525                           ;psect for function _TMR0_SetInterruptHandler
  1526                           
  1527  00FD                     l875:	
  1528                           ;incstack = 0
  1529                           ; Regs used in _TMR0_SetInterruptHandler: [wreg]
  1530                           
  1531                           
  1532                           ;mcc_generated_files/tmr0.c: 135:     TMR0_InterruptHandler = InterruptHandler;
  1533  00FD  087A               	movf	TMR0_SetInterruptHandler@InterruptHandler+1,w
  1534  00FE  00F6               	movwf	_TMR0_InterruptHandler+1
  1535  00FF  0879               	movf	TMR0_SetInterruptHandler@InterruptHandler,w
  1536  0100  00F5               	movwf	_TMR0_InterruptHandler
  1537  0101                     l131:
  1538  0101  0008               	return
  1539  0102                     __end_of_TMR0_SetInterruptHandler:
  1540                           
  1541                           	psect	text6
  1542  0072                     __ptext6:	
  1543 ;; *************** function _PIN_MANAGER_Initialize *****************
  1544 ;; Defined at:
  1545 ;;		line 57 in file "mcc_generated_files/pin_manager.c"
  1546 ;; Parameters:    Size  Location     Type
  1547 ;;		None
  1548 ;; Auto vars:     Size  Location     Type
  1549 ;;		None
  1550 ;; Return value:  Size  Location     Type
  1551 ;;                  1    wreg      void 
  1552 ;; Registers used:
  1553 ;;		wreg, status,2, status,0, pclath, cstack
  1554 ;; Tracked objects:
  1555 ;;		On entry : 0/0
  1556 ;;		On exit  : 0/0
  1557 ;;		Unchanged: 0/0
  1558 ;; Data sizes:     COMMON   BANK0   BANK1   BANK2
  1559 ;;      Params:         0       0       0       0
  1560 ;;      Locals:         0       0       0       0
  1561 ;;      Temps:          0       0       0       0
  1562 ;;      Totals:         0       0       0       0
  1563 ;;Total ram usage:        0 bytes
  1564 ;; Hardware stack levels used: 1
  1565 ;; Hardware stack levels required when called: 5
  1566 ;; This function calls:
  1567 ;;		_IOCCF2_SetInterruptHandler
  1568 ;; This function is called by:
  1569 ;;		_SYSTEM_Initialize
  1570 ;; This function uses a non-reentrant model
  1571 ;;
  1572                           
  1573  0072                     _PIN_MANAGER_Initialize:	
  1574                           ;psect for function _PIN_MANAGER_Initialize
  1575                           
  1576  0072                     l877:	
  1577                           ;incstack = 0
  1578                           ; Regs used in _PIN_MANAGER_Initialize: [wreg+status,2+status,0+pclath+cstack]
  1579                           
  1580                           
  1581                           ;mcc_generated_files/pin_manager.c: 62:     LATA = 0x00;
  1582  0072  0140               	movlb	0	; select bank0
  1583  0073  0198               	clrf	24	;volatile
  1584                           
  1585                           ;mcc_generated_files/pin_manager.c: 63:     LATC = 0x00;
  1586  0074  019A               	clrf	26	;volatile
  1587  0075                     l879:
  1588                           
  1589                           ;mcc_generated_files/pin_manager.c: 68:     TRISA = 0x1B;
  1590  0075  301B               	movlw	27
  1591  0076  0092               	movwf	18	;volatile
  1592  0077                     l881:
  1593                           
  1594                           ;mcc_generated_files/pin_manager.c: 69:     TRISC = 0x3E;
  1595  0077  303E               	movlw	62
  1596  0078  0094               	movwf	20	;volatile
  1597  0079                     l883:
  1598                           
  1599                           ;mcc_generated_files/pin_manager.c: 74:     ANSELC = 0x29;
  1600  0079  3029               	movlw	41
  1601  007A  017E               	movlb	62	; select bank62
  1602  007B  00CE               	movwf	78	;volatile
  1603  007C                     l885:
  1604                           
  1605                           ;mcc_generated_files/pin_manager.c: 75:     ANSELA = 0x27;
  1606  007C  3027               	movlw	39
  1607  007D  00B8               	movwf	56	;volatile
  1608                           
  1609                           ;mcc_generated_files/pin_manager.c: 80:     WPUA = 0x00;
  1610  007E  01B9               	clrf	57	;volatile
  1611  007F                     l887:
  1612                           
  1613                           ;mcc_generated_files/pin_manager.c: 81:     WPUC = 0x06;
  1614  007F  3006               	movlw	6
  1615  0080  00CF               	movwf	79	;volatile
  1616  0081                     l889:
  1617                           
  1618                           ;mcc_generated_files/pin_manager.c: 86:     ODCONA = 0x00;
  1619  0081  01BA               	clrf	58	;volatile
  1620  0082                     l891:
  1621                           
  1622                           ;mcc_generated_files/pin_manager.c: 87:     ODCONC = 0x00;
  1623  0082  01D0               	clrf	80	;volatile
  1624  0083                     l893:
  1625                           
  1626                           ;mcc_generated_files/pin_manager.c: 92:     SLRCONA = 0x37;
  1627  0083  3037               	movlw	55
  1628  0084  00BB               	movwf	59	;volatile
  1629  0085                     l895:
  1630                           
  1631                           ;mcc_generated_files/pin_manager.c: 93:     SLRCONC = 0x3F;
  1632  0085  303F               	movlw	63
  1633  0086  00D1               	movwf	81	;volatile
  1634  0087                     l897:
  1635                           
  1636                           ;mcc_generated_files/pin_manager.c: 98:     INLVLA = 0x3F;
  1637  0087  303F               	movlw	63
  1638  0088  00BC               	movwf	60	;volatile
  1639  0089                     l899:
  1640                           
  1641                           ;mcc_generated_files/pin_manager.c: 99:     INLVLC = 0x3F;
  1642  0089  303F               	movlw	63
  1643  008A  00D2               	movwf	82	;volatile
  1644  008B                     l901:
  1645                           
  1646                           ;mcc_generated_files/pin_manager.c: 106:     IOCCFbits.IOCCF2 = 0;
  1647  008B  1155               	bcf	85,2	;volatile
  1648  008C                     l903:
  1649                           
  1650                           ;mcc_generated_files/pin_manager.c: 108:     IOCCNbits.IOCCN2 = 0;
  1651  008C  1154               	bcf	84,2	;volatile
  1652  008D                     l905:
  1653                           
  1654                           ;mcc_generated_files/pin_manager.c: 110:     IOCCPbits.IOCCP2 = 1;
  1655  008D  1553               	bsf	83,2	;volatile
  1656  008E                     l907:
  1657                           
  1658                           ;mcc_generated_files/pin_manager.c: 115:     IOCCF2_SetInterruptHandler(IOCCF2_DefaultIn
      +                          terruptHandler);
  1659  008E  3017               	movlw	low _IOCCF2_DefaultInterruptHandler
  1660  008F  00F9               	movwf	IOCCF2_SetInterruptHandler@InterruptHandler
  1661  0090  3001               	movlw	high _IOCCF2_DefaultInterruptHandler
  1662  0091  00FA               	movwf	IOCCF2_SetInterruptHandler@InterruptHandler+1
  1663  0092  3181  2102  3180   	fcall	_IOCCF2_SetInterruptHandler
  1664  0095                     l909:
  1665                           
  1666                           ;mcc_generated_files/pin_manager.c: 118:     PIE0bits.IOCIE = 1;
  1667  0095  014E               	movlb	14	; select bank14
  1668  0096  1616               	bsf	22,4	;volatile
  1669  0097                     l72:
  1670  0097  0008               	return
  1671  0098                     __end_of_PIN_MANAGER_Initialize:
  1672                           
  1673                           	psect	text7
  1674  0102                     __ptext7:	
  1675 ;; *************** function _IOCCF2_SetInterruptHandler *****************
  1676 ;; Defined at:
  1677 ;;		line 149 in file "mcc_generated_files/pin_manager.c"
  1678 ;; Parameters:    Size  Location     Type
  1679 ;;  InterruptHan    2    0[COMMON] PTR FTN()void 
  1680 ;;		 -> levelSwISR(1), IOCCF2_DefaultInterruptHandler(1), 
  1681 ;; Auto vars:     Size  Location     Type
  1682 ;;		None
  1683 ;; Return value:  Size  Location     Type
  1684 ;;                  1    wreg      void 
  1685 ;; Registers used:
  1686 ;;		wreg
  1687 ;; Tracked objects:
  1688 ;;		On entry : 0/0
  1689 ;;		On exit  : 0/0
  1690 ;;		Unchanged: 0/0
  1691 ;; Data sizes:     COMMON   BANK0   BANK1   BANK2
  1692 ;;      Params:         2       0       0       0
  1693 ;;      Locals:         0       0       0       0
  1694 ;;      Temps:          0       0       0       0
  1695 ;;      Totals:         2       0       0       0
  1696 ;;Total ram usage:        2 bytes
  1697 ;; Hardware stack levels used: 1
  1698 ;; Hardware stack levels required when called: 4
  1699 ;; This function calls:
  1700 ;;		Nothing
  1701 ;; This function is called by:
  1702 ;;		_PIN_MANAGER_Initialize
  1703 ;;		_main
  1704 ;; This function uses a non-reentrant model
  1705 ;;
  1706                           
  1707  0102                     _IOCCF2_SetInterruptHandler:	
  1708                           ;psect for function _IOCCF2_SetInterruptHandler
  1709                           
  1710  0102                     l873:	
  1711                           ;incstack = 0
  1712                           ; Regs used in _IOCCF2_SetInterruptHandler: [wreg]
  1713                           
  1714                           
  1715                           ;mcc_generated_files/pin_manager.c: 150:     IOCCF2_InterruptHandler = InterruptHandler;
  1716  0102  087A               	movf	IOCCF2_SetInterruptHandler@InterruptHandler+1,w
  1717  0103  00F8               	movwf	_IOCCF2_InterruptHandler+1
  1718  0104  0879               	movf	IOCCF2_SetInterruptHandler@InterruptHandler,w
  1719  0105  00F7               	movwf	_IOCCF2_InterruptHandler
  1720  0106                     l83:
  1721  0106  0008               	return
  1722  0107                     __end_of_IOCCF2_SetInterruptHandler:
  1723                           
  1724                           	psect	text8
  1725  0107                     __ptext8:	
  1726 ;; *************** function _OSCILLATOR_Initialize *****************
  1727 ;; Defined at:
  1728 ;;		line 59 in file "mcc_generated_files/mcc.c"
  1729 ;; Parameters:    Size  Location     Type
  1730 ;;		None
  1731 ;; Auto vars:     Size  Location     Type
  1732 ;;		None
  1733 ;; Return value:  Size  Location     Type
  1734 ;;                  1    wreg      void 
  1735 ;; Registers used:
  1736 ;;		status,2
  1737 ;; Tracked objects:
  1738 ;;		On entry : 0/0
  1739 ;;		On exit  : 0/0
  1740 ;;		Unchanged: 0/0
  1741 ;; Data sizes:     COMMON   BANK0   BANK1   BANK2
  1742 ;;      Params:         0       0       0       0
  1743 ;;      Locals:         0       0       0       0
  1744 ;;      Temps:          0       0       0       0
  1745 ;;      Totals:         0       0       0       0
  1746 ;;Total ram usage:        0 bytes
  1747 ;; Hardware stack levels used: 1
  1748 ;; Hardware stack levels required when called: 4
  1749 ;; This function calls:
  1750 ;;		Nothing
  1751 ;; This function is called by:
  1752 ;;		_SYSTEM_Initialize
  1753 ;; This function uses a non-reentrant model
  1754 ;;
  1755                           
  1756  0107                     _OSCILLATOR_Initialize:	
  1757                           ;psect for function _OSCILLATOR_Initialize
  1758                           
  1759  0107                     l787:	
  1760                           ;incstack = 0
  1761                           ; Regs used in _OSCILLATOR_Initialize: [status,2]
  1762                           
  1763                           
  1764                           ;mcc_generated_files/mcc.c: 62:     OSCEN = 0x00;
  1765  0107  0151               	movlb	17	; select bank17
  1766  0108  0191               	clrf	17	;volatile
  1767                           
  1768                           ;mcc_generated_files/mcc.c: 64:     OSCFRQ = 0x00;
  1769  0109  0193               	clrf	19	;volatile
  1770                           
  1771                           ;mcc_generated_files/mcc.c: 66:     OSCTUNE = 0x00;
  1772  010A  0192               	clrf	18	;volatile
  1773  010B                     l22:
  1774  010B  0008               	return
  1775  010C                     __end_of_OSCILLATOR_Initialize:
  1776                           
  1777                           	psect	intentry
  1778  0004                     __pintentry:	
  1779 ;; *************** function _INTERRUPT_InterruptManager *****************
  1780 ;; Defined at:
  1781 ;;		line 52 in file "mcc_generated_files/interrupt_manager.c"
  1782 ;; Parameters:    Size  Location     Type
  1783 ;;		None
  1784 ;; Auto vars:     Size  Location     Type
  1785 ;;		None
  1786 ;; Return value:  Size  Location     Type
  1787 ;;                  1    wreg      void 
  1788 ;; Registers used:
  1789 ;;		wreg, status,2, status,0, pclath, cstack
  1790 ;; Tracked objects:
  1791 ;;		On entry : 0/0
  1792 ;;		On exit  : 0/0
  1793 ;;		Unchanged: 0/0
  1794 ;; Data sizes:     COMMON   BANK0   BANK1   BANK2
  1795 ;;      Params:         0       0       0       0
  1796 ;;      Locals:         0       0       0       0
  1797 ;;      Temps:          0       0       0       0
  1798 ;;      Totals:         0       0       0       0
  1799 ;;Total ram usage:        0 bytes
  1800 ;; Hardware stack levels used: 1
  1801 ;; Hardware stack levels required when called: 3
  1802 ;; This function calls:
  1803 ;;		_PIN_MANAGER_IOC
  1804 ;;		_TMR0_ISR
  1805 ;; This function is called by:
  1806 ;;		Interrupt level 1
  1807 ;; This function uses a non-reentrant model
  1808 ;;
  1809                           
  1810  0004                     _INTERRUPT_InterruptManager:
  1811                           
  1812                           ;incstack = 0
  1813  0004  147E               	bsf	int$flags,0	;set compiler interrupt flag (level 1)
  1814                           
  1815                           ; Regs used in _INTERRUPT_InterruptManager: [wreg+status,2+status,0+pclath+cstack]
  1816  0005  3180               	pagesel	$
  1817  0006                     i1l845:
  1818                           
  1819                           ;mcc_generated_files/interrupt_manager.c: 55:     if(PIE0bits.IOCIE == 1 && PIR0bits.IOC
      +                          IF == 1)
  1820  0006  014E               	movlb	14	; select bank14
  1821  0007  1E16               	btfss	22,4	;volatile
  1822  0008  280A               	goto	u6_21
  1823  0009  280B               	goto	u6_20
  1824  000A                     u6_21:
  1825  000A  2813               	goto	i1l147
  1826  000B                     u6_20:
  1827  000B                     i1l847:
  1828  000B  1E0C               	btfss	12,4	;volatile
  1829  000C  280E               	goto	u7_21
  1830  000D  280F               	goto	u7_20
  1831  000E                     u7_21:
  1832  000E  2813               	goto	i1l147
  1833  000F                     u7_20:
  1834  000F                     i1l849:
  1835                           
  1836                           ;mcc_generated_files/interrupt_manager.c: 56:     {;mcc_generated_files/interrupt_manage
      +                          r.c: 57:         PIN_MANAGER_IOC();
  1837  000F  3180  20ED  3180   	fcall	_PIN_MANAGER_IOC
  1838                           
  1839                           ;mcc_generated_files/interrupt_manager.c: 58:     }
  1840  0012  281E               	goto	i1l151
  1841  0013                     i1l147:	
  1842                           ;mcc_generated_files/interrupt_manager.c: 59:     else if(PIE0bits.TMR0IE == 1 && PIR0bi
      +                          ts.TMR0IF == 1)
  1843                           
  1844  0013  1E96               	btfss	22,5	;volatile
  1845  0014  2816               	goto	u8_21
  1846  0015  2817               	goto	u8_20
  1847  0016                     u8_21:
  1848  0016  281E               	goto	i1l151
  1849  0017                     u8_20:
  1850  0017                     i1l851:
  1851  0017  1E8C               	btfss	12,5	;volatile
  1852  0018  281A               	goto	u9_21
  1853  0019  281B               	goto	u9_20
  1854  001A                     u9_21:
  1855  001A  281E               	goto	i1l151
  1856  001B                     u9_20:
  1857  001B                     i1l853:
  1858                           
  1859                           ;mcc_generated_files/interrupt_manager.c: 60:     {;mcc_generated_files/interrupt_manage
      +                          r.c: 61:         TMR0_ISR();
  1860  001B  3180  20C4  3180   	fcall	_TMR0_ISR
  1861  001E                     i1l151:	
  1862                           ;mcc_generated_files/interrupt_manager.c: 62:     }
  1863                           
  1864  001E  107E               	bcf	int$flags,0	;clear compiler interrupt flag (level 1)
  1865  001F  0009               	retfie
  1866  0020                     __end_of_INTERRUPT_InterruptManager:
  1867                           
  1868                           	psect	text10
  1869  00C4                     __ptext10:	
  1870 ;; *************** function _TMR0_ISR *****************
  1871 ;; Defined at:
  1872 ;;		line 121 in file "mcc_generated_files/tmr0.c"
  1873 ;; Parameters:    Size  Location     Type
  1874 ;;		None
  1875 ;; Auto vars:     Size  Location     Type
  1876 ;;		None
  1877 ;; Return value:  Size  Location     Type
  1878 ;;                  1    wreg      void 
  1879 ;; Registers used:
  1880 ;;		wreg, status,2, status,0, pclath, cstack
  1881 ;; Tracked objects:
  1882 ;;		On entry : 0/0
  1883 ;;		On exit  : 0/0
  1884 ;;		Unchanged: 0/0
  1885 ;; Data sizes:     COMMON   BANK0   BANK1   BANK2
  1886 ;;      Params:         0       0       0       0
  1887 ;;      Locals:         0       0       0       0
  1888 ;;      Temps:          0       0       0       0
  1889 ;;      Totals:         0       0       0       0
  1890 ;;Total ram usage:        0 bytes
  1891 ;; Hardware stack levels used: 1
  1892 ;; Hardware stack levels required when called: 1
  1893 ;; This function calls:
  1894 ;;		Absolute function
  1895 ;;		_TMR0_DefaultInterruptHandler
  1896 ;;		_timer0ISR
  1897 ;; This function is called by:
  1898 ;;		_INTERRUPT_InterruptManager
  1899 ;; This function uses a non-reentrant model
  1900 ;;
  1901                           
  1902  00C4                     _TMR0_ISR:	
  1903                           ;psect for function _TMR0_ISR
  1904                           
  1905  00C4                     i1l829:	
  1906                           ;incstack = 0
  1907                           ; Regs used in _TMR0_ISR: [wreg+status,2+status,0+pclath+cstack]
  1908                           
  1909                           
  1910                           ;mcc_generated_files/tmr0.c: 124:     PIR0bits.TMR0IF = 0;
  1911  00C4  014E               	movlb	14	; select bank14
  1912  00C5  128C               	bcf	12,5	;volatile
  1913  00C6                     i1l831:
  1914                           
  1915                           ;mcc_generated_files/tmr0.c: 125:     if(TMR0_InterruptHandler)
  1916  00C6  0875               	movf	_TMR0_InterruptHandler,w
  1917  00C7  0476               	iorwf	_TMR0_InterruptHandler+1,w
  1918  00C8  1903               	btfsc	3,2
  1919  00C9  28CB               	goto	u5_21
  1920  00CA  28CC               	goto	u5_20
  1921  00CB                     u5_21:
  1922  00CB  28D1               	goto	i1l128
  1923  00CC                     u5_20:
  1924  00CC                     i1l833:
  1925                           
  1926                           ;mcc_generated_files/tmr0.c: 126:     {;mcc_generated_files/tmr0.c: 127:         TMR0_In
      +                          terruptHandler();
  1927  00CC  0876               	movf	_TMR0_InterruptHandler+1,w
  1928  00CD  008A               	movwf	10
  1929  00CE  0875               	movf	_TMR0_InterruptHandler,w
  1930  00CF  000A               	callw
  1931  00D0  3180               	pagesel	$
  1932  00D1                     i1l128:
  1933  00D1  0008               	return
  1934  00D2                     __end_of_TMR0_ISR:
  1935                           
  1936                           	psect	text11
  1937  0116                     __ptext11:	
  1938 ;; *************** function _TMR0_DefaultInterruptHandler *****************
  1939 ;; Defined at:
  1940 ;;		line 138 in file "mcc_generated_files/tmr0.c"
  1941 ;; Parameters:    Size  Location     Type
  1942 ;;		None
  1943 ;; Auto vars:     Size  Location     Type
  1944 ;;		None
  1945 ;; Return value:  Size  Location     Type
  1946 ;;                  1    wreg      void 
  1947 ;; Registers used:
  1948 ;;		None
  1949 ;; Tracked objects:
  1950 ;;		On entry : 0/0
  1951 ;;		On exit  : 0/0
  1952 ;;		Unchanged: 0/0
  1953 ;; Data sizes:     COMMON   BANK0   BANK1   BANK2
  1954 ;;      Params:         0       0       0       0
  1955 ;;      Locals:         0       0       0       0
  1956 ;;      Temps:          0       0       0       0
  1957 ;;      Totals:         0       0       0       0
  1958 ;;Total ram usage:        0 bytes
  1959 ;; Hardware stack levels used: 1
  1960 ;; This function calls:
  1961 ;;		Nothing
  1962 ;; This function is called by:
  1963 ;;		_TMR0_Initialize
  1964 ;;		_TMR0_ISR
  1965 ;; This function uses a non-reentrant model
  1966 ;;
  1967                           
  1968  0116                     _TMR0_DefaultInterruptHandler:	
  1969                           ;psect for function _TMR0_DefaultInterruptHandler
  1970                           
  1971  0116                     i1l134:	
  1972                           ;incstack = 0
  1973                           ; Regs used in _TMR0_DefaultInterruptHandler: []
  1974                           
  1975  0116  0008               	return
  1976  0117                     __end_of_TMR0_DefaultInterruptHandler:
  1977                           
  1978                           	psect	text12
  1979  0098                     __ptext12:	
  1980 ;; *************** function _timer0ISR *****************
  1981 ;; Defined at:
  1982 ;;		line 71 in file "main.c"
  1983 ;; Parameters:    Size  Location     Type
  1984 ;;		None
  1985 ;; Auto vars:     Size  Location     Type
  1986 ;;		None
  1987 ;; Return value:  Size  Location     Type
  1988 ;;                  1    wreg      void 
  1989 ;; Registers used:
  1990 ;;		wreg, status,2, status,0
  1991 ;; Tracked objects:
  1992 ;;		On entry : 0/0
  1993 ;;		On exit  : 0/0
  1994 ;;		Unchanged: 0/0
  1995 ;; Data sizes:     COMMON   BANK0   BANK1   BANK2
  1996 ;;      Params:         0       0       0       0
  1997 ;;      Locals:         0       0       0       0
  1998 ;;      Temps:          0       0       0       0
  1999 ;;      Totals:         0       0       0       0
  2000 ;;Total ram usage:        0 bytes
  2001 ;; Hardware stack levels used: 1
  2002 ;; This function calls:
  2003 ;;		Nothing
  2004 ;; This function is called by:
  2005 ;;		_main
  2006 ;;		_TMR0_ISR
  2007 ;; This function uses a non-reentrant model
  2008 ;;
  2009                           
  2010  0098                     _timer0ISR:	
  2011                           ;psect for function _timer0ISR
  2012                           
  2013  0098                     i1l809:	
  2014                           ;incstack = 0
  2015                           ; Regs used in _timer0ISR: [wreg+status,2+status,0]
  2016                           
  2017                           
  2018                           ;main.c: 73:     pumpCounter++;
  2019  0098  3001               	movlw	1
  2020  0099  07F2               	addwf	_pumpCounter,f
  2021  009A  3000               	movlw	0
  2022  009B  3DF3               	addwfc	_pumpCounter+1,f
  2023                           
  2024                           ;main.c: 74:     ledCounter++;
  2025  009C  3001               	movlw	1
  2026  009D  07F0               	addwf	_ledCounter,f
  2027  009E  3000               	movlw	0
  2028  009F  3DF1               	addwfc	_ledCounter+1,f
  2029  00A0                     i1l811:
  2030                           
  2031                           ;main.c: 76:     if(pumpState && (pumpCounter > tankFillTime))
  2032  00A0  0874               	movf	_pumpState,w
  2033  00A1  1903               	btfsc	3,2
  2034  00A2  28A4               	goto	u2_21
  2035  00A3  28A5               	goto	u2_20
  2036  00A4                     u2_21:
  2037  00A4  28AF               	goto	i1l219
  2038  00A5                     u2_20:
  2039  00A5                     i1l813:
  2040  00A5  3013               	movlw	19
  2041  00A6  0273               	subwf	_pumpCounter+1,w
  2042  00A7  3089               	movlw	137
  2043  00A8  1903               	skipnz
  2044  00A9  0272               	subwf	_pumpCounter,w
  2045  00AA  1C03               	skipc
  2046  00AB  28AD               	goto	u3_21
  2047  00AC  28AE               	goto	u3_20
  2048  00AD                     u3_21:
  2049  00AD  28AF               	goto	i1l219
  2050  00AE                     u3_20:
  2051  00AE                     i1l815:
  2052                           
  2053                           ;main.c: 77:     {;main.c: 78:         pumpState = 0;
  2054  00AE  01F4               	clrf	_pumpState
  2055  00AF                     i1l219:
  2056  00AF  0008               	return
  2057  00B0                     __end_of_timer0ISR:
  2058                           
  2059                           	psect	text13
  2060  00ED                     __ptext13:	
  2061 ;; *************** function _PIN_MANAGER_IOC *****************
  2062 ;; Defined at:
  2063 ;;		line 122 in file "mcc_generated_files/pin_manager.c"
  2064 ;; Parameters:    Size  Location     Type
  2065 ;;		None
  2066 ;; Auto vars:     Size  Location     Type
  2067 ;;		None
  2068 ;; Return value:  Size  Location     Type
  2069 ;;                  1    wreg      void 
  2070 ;; Registers used:
  2071 ;;		wreg, status,2, status,0, pclath, cstack
  2072 ;; Tracked objects:
  2073 ;;		On entry : 0/0
  2074 ;;		On exit  : 0/0
  2075 ;;		Unchanged: 0/0
  2076 ;; Data sizes:     COMMON   BANK0   BANK1   BANK2
  2077 ;;      Params:         0       0       0       0
  2078 ;;      Locals:         0       0       0       0
  2079 ;;      Temps:          0       0       0       0
  2080 ;;      Totals:         0       0       0       0
  2081 ;;Total ram usage:        0 bytes
  2082 ;; Hardware stack levels used: 1
  2083 ;; Hardware stack levels required when called: 2
  2084 ;; This function calls:
  2085 ;;		_IOCCF2_ISR
  2086 ;; This function is called by:
  2087 ;;		_INTERRUPT_InterruptManager
  2088 ;; This function uses a non-reentrant model
  2089 ;;
  2090                           
  2091  00ED                     _PIN_MANAGER_IOC:	
  2092                           ;psect for function _PIN_MANAGER_IOC
  2093                           
  2094  00ED                     i1l823:	
  2095                           ;incstack = 0
  2096                           ; Regs used in _PIN_MANAGER_IOC: [wreg+status,2+status,0+pclath+cstack]
  2097                           
  2098                           
  2099                           ;mcc_generated_files/pin_manager.c: 125:     if(IOCCFbits.IOCCF2 == 1)
  2100  00ED  017E               	movlb	62	; select bank62
  2101  00EE  1D55               	btfss	85,2	;volatile
  2102  00EF  28F1               	goto	u4_21
  2103  00F0  28F2               	goto	u4_20
  2104  00F1                     u4_21:
  2105  00F1  28F5               	goto	i1l76
  2106  00F2                     u4_20:
  2107  00F2                     i1l825:
  2108                           
  2109                           ;mcc_generated_files/pin_manager.c: 126:     {;mcc_generated_files/pin_manager.c: 127:  
      +                                 IOCCF2_ISR();
  2110  00F2  3180  20D2  3180   	fcall	_IOCCF2_ISR
  2111  00F5                     i1l76:
  2112  00F5  0008               	return
  2113  00F6                     __end_of_PIN_MANAGER_IOC:
  2114                           
  2115                           	psect	text14
  2116  00D2                     __ptext14:	
  2117 ;; *************** function _IOCCF2_ISR *****************
  2118 ;; Defined at:
  2119 ;;		line 134 in file "mcc_generated_files/pin_manager.c"
  2120 ;; Parameters:    Size  Location     Type
  2121 ;;		None
  2122 ;; Auto vars:     Size  Location     Type
  2123 ;;		None
  2124 ;; Return value:  Size  Location     Type
  2125 ;;                  1    wreg      void 
  2126 ;; Registers used:
  2127 ;;		wreg, status,2, status,0, pclath, cstack
  2128 ;; Tracked objects:
  2129 ;;		On entry : 0/0
  2130 ;;		On exit  : 0/0
  2131 ;;		Unchanged: 0/0
  2132 ;; Data sizes:     COMMON   BANK0   BANK1   BANK2
  2133 ;;      Params:         0       0       0       0
  2134 ;;      Locals:         0       0       0       0
  2135 ;;      Temps:          0       0       0       0
  2136 ;;      Totals:         0       0       0       0
  2137 ;;Total ram usage:        0 bytes
  2138 ;; Hardware stack levels used: 1
  2139 ;; Hardware stack levels required when called: 1
  2140 ;; This function calls:
  2141 ;;		Absolute function
  2142 ;;		_IOCCF2_DefaultInterruptHandler
  2143 ;;		_levelSwISR
  2144 ;; This function is called by:
  2145 ;;		_PIN_MANAGER_IOC
  2146 ;; This function uses a non-reentrant model
  2147 ;;
  2148                           
  2149  00D2                     _IOCCF2_ISR:	
  2150                           ;psect for function _IOCCF2_ISR
  2151                           
  2152  00D2                     i1l803:	
  2153                           ;incstack = 0
  2154                           ; Regs used in _IOCCF2_ISR: [wreg+status,2+status,0+pclath+cstack]
  2155                           
  2156                           
  2157                           ;mcc_generated_files/pin_manager.c: 139:     if(IOCCF2_InterruptHandler)
  2158  00D2  0877               	movf	_IOCCF2_InterruptHandler,w
  2159  00D3  0478               	iorwf	_IOCCF2_InterruptHandler+1,w
  2160  00D4  1903               	btfsc	3,2
  2161  00D5  28D7               	goto	u1_21
  2162  00D6  28D8               	goto	u1_20
  2163  00D7                     u1_21:
  2164  00D7  28DD               	goto	i1l807
  2165  00D8                     u1_20:
  2166  00D8                     i1l805:
  2167                           
  2168                           ;mcc_generated_files/pin_manager.c: 140:     {;mcc_generated_files/pin_manager.c: 141:  
      +                                 IOCCF2_InterruptHandler();
  2169  00D8  0878               	movf	_IOCCF2_InterruptHandler+1,w
  2170  00D9  008A               	movwf	10
  2171  00DA  0877               	movf	_IOCCF2_InterruptHandler,w
  2172  00DB  000A               	callw
  2173  00DC  3180               	pagesel	$
  2174  00DD                     i1l807:
  2175                           
  2176                           ;mcc_generated_files/pin_manager.c: 143:     IOCCFbits.IOCCF2 = 0;
  2177  00DD  017E               	movlb	62	; select bank62
  2178  00DE  1155               	bcf	85,2	;volatile
  2179  00DF                     i1l80:
  2180  00DF  0008               	return
  2181  00E0                     __end_of_IOCCF2_ISR:
  2182                           
  2183                           	psect	text15
  2184  0117                     __ptext15:	
  2185 ;; *************** function _IOCCF2_DefaultInterruptHandler *****************
  2186 ;; Defined at:
  2187 ;;		line 156 in file "mcc_generated_files/pin_manager.c"
  2188 ;; Parameters:    Size  Location     Type
  2189 ;;		None
  2190 ;; Auto vars:     Size  Location     Type
  2191 ;;		None
  2192 ;; Return value:  Size  Location     Type
  2193 ;;                  1    wreg      void 
  2194 ;; Registers used:
  2195 ;;		None
  2196 ;; Tracked objects:
  2197 ;;		On entry : 0/0
  2198 ;;		On exit  : 0/0
  2199 ;;		Unchanged: 0/0
  2200 ;; Data sizes:     COMMON   BANK0   BANK1   BANK2
  2201 ;;      Params:         0       0       0       0
  2202 ;;      Locals:         0       0       0       0
  2203 ;;      Temps:          0       0       0       0
  2204 ;;      Totals:         0       0       0       0
  2205 ;;Total ram usage:        0 bytes
  2206 ;; Hardware stack levels used: 1
  2207 ;; This function calls:
  2208 ;;		Nothing
  2209 ;; This function is called by:
  2210 ;;		_PIN_MANAGER_Initialize
  2211 ;;		_IOCCF2_ISR
  2212 ;; This function uses a non-reentrant model
  2213 ;;
  2214                           
  2215  0117                     _IOCCF2_DefaultInterruptHandler:	
  2216                           ;psect for function _IOCCF2_DefaultInterruptHandler
  2217                           
  2218  0117                     i1l86:	
  2219                           ;incstack = 0
  2220                           ; Regs used in _IOCCF2_DefaultInterruptHandler: []
  2221                           
  2222  0117  0008               	return
  2223  0118                     __end_of_IOCCF2_DefaultInterruptHandler:
  2224                           
  2225                           	psect	text16
  2226  00F6                     __ptext16:	
  2227 ;; *************** function _levelSwISR *****************
  2228 ;; Defined at:
  2229 ;;		line 64 in file "main.c"
  2230 ;; Parameters:    Size  Location     Type
  2231 ;;		None
  2232 ;; Auto vars:     Size  Location     Type
  2233 ;;		None
  2234 ;; Return value:  Size  Location     Type
  2235 ;;                  1    wreg      void 
  2236 ;; Registers used:
  2237 ;;		status,2
  2238 ;; Tracked objects:
  2239 ;;		On entry : 0/0
  2240 ;;		On exit  : 0/0
  2241 ;;		Unchanged: 0/0
  2242 ;; Data sizes:     COMMON   BANK0   BANK1   BANK2
  2243 ;;      Params:         0       0       0       0
  2244 ;;      Locals:         0       0       0       0
  2245 ;;      Temps:          0       0       0       0
  2246 ;;      Totals:         0       0       0       0
  2247 ;;Total ram usage:        0 bytes
  2248 ;; Hardware stack levels used: 1
  2249 ;; This function calls:
  2250 ;;		Nothing
  2251 ;; This function is called by:
  2252 ;;		_main
  2253 ;;		_IOCCF2_ISR
  2254 ;; This function uses a non-reentrant model
  2255 ;;
  2256                           
  2257  00F6                     _levelSwISR:	
  2258                           ;psect for function _levelSwISR
  2259                           
  2260  00F6                     i1l749:	
  2261                           ;incstack = 0
  2262                           ; Regs used in _levelSwISR: [status,2]
  2263                           
  2264                           
  2265                           ;main.c: 66:     pumpState = 1;
  2266  00F6  01F4               	clrf	_pumpState
  2267  00F7  0AF4               	incf	_pumpState,f
  2268  00F8                     i1l751:
  2269                           
  2270                           ;main.c: 67:     pumpCounter = 0;
  2271  00F8  01F2               	clrf	_pumpCounter
  2272  00F9  01F3               	clrf	_pumpCounter+1
  2273                           
  2274                           ;main.c: 68:     ledCounter = 0;
  2275  00FA  01F0               	clrf	_ledCounter
  2276  00FB  01F1               	clrf	_ledCounter+1
  2277  00FC                     i1l215:
  2278  00FC  0008               	return
  2279  00FD                     __end_of_levelSwISR:
  2280  007E                     btemp	set	126	;btemp
  2281  007E                     int$flags	set	126
  2282  007E                     wtemp0	set	126
  2283                           
  2284                           	psect	idloc
  2285                           
  2286                           ;Config register IDLOC0 @ 0x8000
  2287                           ;	unspecified, using default values
  2288  8000                     	org	32768
  2289  8000  3FFF               	dw	16383
  2290                           
  2291                           ;Config register IDLOC1 @ 0x8001
  2292                           ;	unspecified, using default values
  2293  8001                     	org	32769
  2294  8001  3FFF               	dw	16383
  2295                           
  2296                           ;Config register IDLOC2 @ 0x8002
  2297                           ;	unspecified, using default values
  2298  8002                     	org	32770
  2299  8002  3FFF               	dw	16383
  2300                           
  2301                           ;Config register IDLOC3 @ 0x8003
  2302                           ;	unspecified, using default values
  2303  8003                     	org	32771
  2304  8003  3FFF               	dw	16383
  2305                           
  2306                           	psect	config
  2307                           
  2308                           ;Config register CONFIG1 @ 0x8007
  2309                           ;	External Oscillator Mode Selection bits
  2310                           ;	FEXTOSC = OFF, Oscillator not enabled
  2311                           ;	Power-up Default Value for COSC bits
  2312                           ;	RSTOSC = HFINTOSC_1MHZ, HFINTOSC (1 MHz)
  2313                           ;	Clock Out Enable bit
  2314                           ;	CLKOUTEN = OFF, CLKOUT function is disabled; I/O function on RA4
  2315                           ;	VDD Range Analog Calibration Selection bit
  2316                           ;	VDDAR = HI, Internal analog systems are calibrated for operation between VDD = 2.3V - 
      +                          5.5V
  2317  8007                     	org	32775
  2318  8007  3FED               	dw	16365
  2319                           
  2320                           ;Config register CONFIG2 @ 0x8008
  2321                           ;	Master Clear Enable bit
  2322                           ;	MCLRE = EXTMCLR, If LVP = 0, MCLR pin is MCLR; If LVP = 1, RA3 pin function is MCLR
  2323                           ;	Power-up Timer Selection bits
  2324                           ;	PWRTS = PWRT_OFF, PWRT is disabled
  2325                           ;	WDT Operating Mode bits
  2326                           ;	WDTE = OFF, WDT disabled; SEN is ignored
  2327                           ;	Brown-out Reset Enable bits
  2328                           ;	BOREN = OFF, Brown-out Reset disabled
  2329                           ;	Brown-out Reset Voltage Selection bit
  2330                           ;	BORV = LO, Brown-out Reset Voltage (VBOR) set to 1.9V
  2331                           ;	PPSLOCKED One-Way Set Enable bit
  2332                           ;	PPS1WAY = ON, The PPSLOCKED bit can be set once after an unlocking sequence is execute
      +                          d; once PPSLOCKED is set, all future changes to PPS registers are prevented
  2333                           ;	Stack Overflow/Underflow Reset Enable bit
  2334                           ;	STVREN = ON, Stack Overflow or Underflow will cause a reset
  2335  8008                     	org	32776
  2336  8008  3F27               	dw	16167
  2337                           
  2338                           ;Config register CONFIG3 @ 0x8009
  2339                           ;	unspecified, using default values
  2340  8009                     	org	32777
  2341  8009  3FFF               	dw	16383
  2342                           
  2343                           ;Config register CONFIG4 @ 0x800A
  2344                           ;	Boot Block Size Selection bits
  2345                           ;	BBSIZE = BB512, 512 words boot block size
  2346                           ;	Boot Block Enable bit
  2347                           ;	BBEN = OFF, Boot Block is disabled
  2348                           ;	SAF Enable bit
  2349                           ;	SAFEN = OFF, SAF is disabled
  2350                           ;	Application Block Write Protection bit
  2351                           ;	WRTAPP = OFF, Application Block is not write-protected
  2352                           ;	Boot Block Write Protection bit
  2353                           ;	WRTB = OFF, Boot Block is not write-protected
  2354                           ;	Configuration Registers Write Protection bit
  2355                           ;	WRTC = OFF, Configuration Registers are not write-protected
  2356                           ;	Storage Area Flash (SAF) Write Protection bit
  2357                           ;	WRTSAF = OFF, SAF is not write-protected
  2358                           ;	Low Voltage Programming Enable bit
  2359                           ;	LVP = ON, Low Voltage programming enabled. MCLR/Vpp pin function is MCLR. MCLRE Config
      +                          uration bit is ignored.
  2360  800A                     	org	32778
  2361  800A  3FFF               	dw	16383
  2362                           
  2363                           ;Config register CONFIG5 @ 0x800B
  2364                           ;	User Program Flash Memory Code Protection bit
  2365                           ;	CP = OFF, User Program Flash Memory code protection is disabled
  2366  800B                     	org	32779
  2367  800B  3FFF               	dw	16383

Data Sizes:
    Strings     0
    Constant    4
    Data        0
    BSS         5
    Persistent  36
    Stack       0

Auto Spaces:
    Space          Size  Autos    Used
    COMMON           14      2      11
    BANK0            80      0       0
    BANK1            80      0       0
    BANK2            80      0       0

Pointer List with Targets:

    TMR0_SetInterruptHandler@InterruptHandler	PTR FTN()void  size(2) Largest target is 1
		 -> timer0ISR(), TMR0_DefaultInterruptHandler(), 

    TMR0_InterruptHandler	PTR FTN()void  size(2) Largest target is 1
		 -> timer0ISR(), TMR0_DefaultInterruptHandler(), Absolute function(), 

    IOCCF2_SetInterruptHandler@InterruptHandler	PTR FTN()void  size(2) Largest target is 1
		 -> levelSwISR(), IOCCF2_DefaultInterruptHandler(), 

    IOCCF2_InterruptHandler	PTR FTN()void  size(2) Largest target is 1
		 -> levelSwISR(), Absolute function(), IOCCF2_DefaultInterruptHandler(), 


Critical Paths under _main in COMMON

    _main->_IOCCF2_SetInterruptHandler
    _main->_TMR0_SetInterruptHandler
    _TMR0_Initialize->_TMR0_SetInterruptHandler
    _PIN_MANAGER_Initialize->_IOCCF2_SetInterruptHandler

Critical Paths under _INTERRUPT_InterruptManager in COMMON

    None.

Critical Paths under _main in BANK0

    None.

Critical Paths under _INTERRUPT_InterruptManager in BANK0

    None.

Critical Paths under _main in BANK1

    None.

Critical Paths under _INTERRUPT_InterruptManager in BANK1

    None.

Critical Paths under _main in BANK2

    None.

Critical Paths under _INTERRUPT_InterruptManager in BANK2

    None.

Call Graph Tables:

 ---------------------------------------------------------------------------------
 (Depth) Function   	        Calls       Base Space   Used Autos Params    Refs
 ---------------------------------------------------------------------------------
 (0) _main                                                 0     0      0     696
         _IOCCF2_SetInterruptHandler
                  _SYSTEM_Initialize
           _TMR0_SetInterruptHandler
                    _TMR0_StartTimer
 ---------------------------------------------------------------------------------
 (1) _TMR0_StartTimer                                      0     0      0       0
 ---------------------------------------------------------------------------------
 (1) _SYSTEM_Initialize                                    0     0      0     348
              _OSCILLATOR_Initialize
             _PIN_MANAGER_Initialize
                    _TMR0_Initialize
                     _WDT_Initialize
 ---------------------------------------------------------------------------------
 (2) _WDT_Initialize                                       0     0      0       0
 ---------------------------------------------------------------------------------
 (2) _TMR0_Initialize                                      0     0      0     174
           _TMR0_SetInterruptHandler
 ---------------------------------------------------------------------------------
 (1) _TMR0_SetInterruptHandler                             2     0      2     174
                                              0 COMMON     2     0      2
 ---------------------------------------------------------------------------------
 (2) _PIN_MANAGER_Initialize                               0     0      0     174
         _IOCCF2_SetInterruptHandler
 ---------------------------------------------------------------------------------
 (3) _IOCCF2_SetInterruptHandler                           2     0      2     174
                                              0 COMMON     2     0      2
 ---------------------------------------------------------------------------------
 (2) _OSCILLATOR_Initialize                                0     0      0       0
 ---------------------------------------------------------------------------------
 Estimated maximum stack depth 3
 ---------------------------------------------------------------------------------
 (Depth) Function   	        Calls       Base Space   Used Autos Params    Refs
 ---------------------------------------------------------------------------------
 (4) _INTERRUPT_InterruptManager                           0     0      0       0
                    _PIN_MANAGER_IOC
                           _TMR0_ISR
 ---------------------------------------------------------------------------------
 (5) _TMR0_ISR                                             0     0      0       0
                   Absolute function *
       _TMR0_DefaultInterruptHandler *
                          _timer0ISR *
 ---------------------------------------------------------------------------------
 (6) _timer0ISR                                            0     0      0       0
 ---------------------------------------------------------------------------------
 (6) _TMR0_DefaultInterruptHandler                         0     0      0       0
 ---------------------------------------------------------------------------------
 (5) _PIN_MANAGER_IOC                                      0     0      0       0
                         _IOCCF2_ISR
 ---------------------------------------------------------------------------------
 (6) _IOCCF2_ISR                                           0     0      0       0
                   Absolute function *
     _IOCCF2_DefaultInterruptHandler *
                         _levelSwISR *
 ---------------------------------------------------------------------------------
 (7) _levelSwISR                                           0     0      0       0
 ---------------------------------------------------------------------------------
 (7) _IOCCF2_DefaultInterruptHandler                       0     0      0       0
 ---------------------------------------------------------------------------------
 (6) Absolute function(Fake)                               0     0      0       0
 ---------------------------------------------------------------------------------
 Estimated maximum stack depth 7
 ---------------------------------------------------------------------------------

 Call Graph Graphs:

 _main (ROOT)
   _IOCCF2_SetInterruptHandler
   _SYSTEM_Initialize
     _OSCILLATOR_Initialize
     _PIN_MANAGER_Initialize
       _IOCCF2_SetInterruptHandler
     _TMR0_Initialize
       _TMR0_SetInterruptHandler
     _WDT_Initialize
   _TMR0_SetInterruptHandler
   _TMR0_StartTimer

 _INTERRUPT_InterruptManager (ROOT)
   _PIN_MANAGER_IOC
     _IOCCF2_ISR
       Absolute function(Fake) *
       _IOCCF2_DefaultInterruptHandler *
       _levelSwISR *
   _TMR0_ISR
     Absolute function(Fake) *
     _TMR0_DefaultInterruptHandler *
     _timer0ISR *

 Address spaces:
Name               Size   Autos  Total    Cost      Usage
BIGRAM              F0      0       0       0        0.0%
NULL                 0      0       0       0        0.0%
CODE                 0      0       0       0        0.0%
BITCOMMON            E      0       0       1        0.0%
BITSFR0              0      0       0       1        0.0%
SFR0                 0      0       0       1        0.0%
COMMON               E      2       B       2       78.6%
BITSFR1              0      0       0       2        0.0%
SFR1                 0      0       0       2        0.0%
BITSFR2              0      0       0       3        0.0%
SFR2                 0      0       0       3        0.0%
STACK                0      0       0       3        0.0%
BITBANK0            50      0       0       4        0.0%
BITSFR3              0      0       0       4        0.0%
SFR3                 0      0       0       4        0.0%
BANK0               50      0       0       5        0.0%
BITSFR4              0      0       0       5        0.0%
SFR4                 0      0       0       5        0.0%
BITBANK1            50      0       0       6        0.0%
BITSFR5              0      0       0       6        0.0%
SFR5                 0      0       0       6        0.0%
BANK1               50      0       0       7        0.0%
BITSFR6              0      0       0       7        0.0%
SFR6                 0      0       0       7        0.0%
BITBANK2            50      0       0       8        0.0%
BITSFR7              0      0       0       8        0.0%
SFR7                 0      0       0       8        0.0%
BANK2               50      0       0       9        0.0%
BITSFR8              0      0       0       9        0.0%
SFR8                 0      0       0       9        0.0%
BITSFR9              0      0       0      10        0.0%
SFR9                 0      0       0      10        0.0%
ABS                  0      0       B      10        0.0%
BITSFR10             0      0       0      11        0.0%
SFR10                0      0       0      11        0.0%
DATA                 0      0       B      11        0.0%
BITSFR11             0      0       0      12        0.0%
SFR11                0      0       0      12        0.0%
BITSFR12             0      0       0      13        0.0%
SFR12                0      0       0      13        0.0%
BITSFR13             0      0       0      14        0.0%
SFR13                0      0       0      14        0.0%
BITSFR14             0      0       0      15        0.0%
SFR14                0      0       0      15        0.0%
BITSFR15             0      0       0      16        0.0%
SFR15                0      0       0      16        0.0%
BITSFR16             0      0       0      17        0.0%
SFR16                0      0       0      17        0.0%
BITSFR17             0      0       0      18        0.0%
SFR17                0      0       0      18        0.0%
BITSFR18             0      0       0      19        0.0%
SFR18                0      0       0      19        0.0%
BITSFR19             0      0       0      20        0.0%
SFR19                0      0       0      20        0.0%
BITSFR20             0      0       0      21        0.0%
SFR20                0      0       0      21        0.0%
BITSFR21             0      0       0      22        0.0%
SFR21                0      0       0      22        0.0%
BITSFR22             0      0       0      23        0.0%
SFR22                0      0       0      23        0.0%
BITSFR23             0      0       0      24        0.0%
SFR23                0      0       0      24        0.0%
BITSFR24             0      0       0      25        0.0%
SFR24                0      0       0      25        0.0%
BITSFR25             0      0       0      26        0.0%
SFR25                0      0       0      26        0.0%
BITSFR26             0      0       0      27        0.0%
SFR26                0      0       0      27        0.0%
BITSFR27             0      0       0      28        0.0%
SFR27                0      0       0      28        0.0%
BITSFR28             0      0       0      29        0.0%
SFR28                0      0       0      29        0.0%
BITSFR29             0      0       0      30        0.0%
SFR29                0      0       0      30        0.0%
BITSFR30             0      0       0      31        0.0%
SFR30                0      0       0      31        0.0%
BITSFR31             0      0       0      32        0.0%
SFR31                0      0       0      32        0.0%
BITSFR32             0      0       0      33        0.0%
SFR32                0      0       0      33        0.0%
BITSFR33             0      0       0      34        0.0%
SFR33                0      0       0      34        0.0%
BITSFR34             0      0       0      35        0.0%
SFR34                0      0       0      35        0.0%
BITSFR35             0      0       0      36        0.0%
SFR35                0      0       0      36        0.0%
BITSFR36             0      0       0      37        0.0%
SFR36                0      0       0      37        0.0%
BITSFR37             0      0       0      38        0.0%
SFR37                0      0       0      38        0.0%
BITSFR38             0      0       0      39        0.0%
SFR38                0      0       0      39        0.0%
BITSFR39             0      0       0      40        0.0%
SFR39                0      0       0      40        0.0%
BITSFR40             0      0       0      41        0.0%
SFR40                0      0       0      41        0.0%
BITSFR41             0      0       0      42        0.0%
SFR41                0      0       0      42        0.0%
BITSFR42             0      0       0      43        0.0%
SFR42                0      0       0      43        0.0%
BITSFR43             0      0       0      44        0.0%
SFR43                0      0       0      44        0.0%
BITSFR44             0      0       0      45        0.0%
SFR44                0      0       0      45        0.0%
BITSFR45             0      0       0      46        0.0%
SFR45                0      0       0      46        0.0%
BITSFR46             0      0       0      47        0.0%
SFR46                0      0       0      47        0.0%
BITSFR47             0      0       0      48        0.0%
SFR47                0      0       0      48        0.0%
BITSFR48             0      0       0      49        0.0%
SFR48                0      0       0      49        0.0%
BITSFR49             0      0       0      50        0.0%
SFR49                0      0       0      50        0.0%
BITSFR50             0      0       0      51        0.0%
SFR50                0      0       0      51        0.0%
BITSFR51             0      0       0      52        0.0%
SFR51                0      0       0      52        0.0%
BITSFR52             0      0       0      53        0.0%
SFR52                0      0       0      53        0.0%
BITSFR53             0      0       0      54        0.0%
SFR53                0      0       0      54        0.0%
BITSFR54             0      0       0      55        0.0%
SFR54                0      0       0      55        0.0%
BITSFR55             0      0       0      56        0.0%
SFR55                0      0       0      56        0.0%
BITSFR56             0      0       0      57        0.0%
SFR56                0      0       0      57        0.0%
BITSFR57             0      0       0      58        0.0%
SFR57                0      0       0      58        0.0%
BITSFR58             0      0       0      59        0.0%
SFR58                0      0       0      59        0.0%
BITSFR59             0      0       0      60        0.0%
SFR59                0      0       0      60        0.0%
BITSFR60             0      0       0      61        0.0%
SFR60                0      0       0      61        0.0%
BITSFR61             0      0       0      62        0.0%
SFR61                0      0       0      62        0.0%
BITSFR62             0      0       0      63        0.0%
SFR62                0      0       0      63        0.0%
BITSFR63             0      0       0      64        0.0%
SFR63                0      0       0      64        0.0%


Microchip Technology PIC Macro Assembler V2.36 build 20220127204148 
Symbol Table                                                                                   Wed Mar 08 12:46:00 2023

                                        l22 010B                                          l25 0111  
                                        l19 00EC                                          l72 0097  
                                        l83 0106                                         l112 010E  
                                       l200 0067                                         l202 0068  
                                       l131 0101                                         l203 0069  
                                       l109 00C3                                         l205 006D  
                                       l208 006F                                         l191 0049  
                                       l192 004E                                         l194 004F  
                                       l901 008B                                         l903 008C  
                                       l911 00B0                                         l905 008D  
                                       l921 00C0                                         l913 00B5  
                                       l907 008E                                         l915 00B6  
                                       l923 00E0                                         l827 010C  
                                       l931 002C                                         l909 0095  
                                       l917 00B8                                         l925 00E3  
                                       l941 0050                                         l933 002D  
                                       l919 00B9                                         l927 00E6  
                                       l943 0059                                         l935 003C  
                                       l873 0102                                         l881 0077  
                                       l945 0064                                         l937 003F  
                                       l929 0029                                         l787 0107  
                                       l891 0082                                         l883 0079  
                                       l875 00FD                                         l939 0044  
                                       l893 0083                                         l885 007C  
                                       l877 0072                                         l789 010F  
                                       l895 0085                                         l887 007F  
                                       l879 0075                                         l897 0087  
                                       l889 0081                                         l899 0089  
                                       u200 0059                                         u201 0058  
                                       u210 0062                                         u211 005F  
                                       u230 006D                                         u231 006C  
                                       u224 0064                                         u170 0044  
                                       u171 0043                                         u180 0049  
                                       u181 0048                                         u190 004E  
                                       u191 004D            ??_IOCCF2_DefaultInterruptHandler 0079  
           ?_IOCCF2_DefaultInterruptHandler 0079                                        _LATA 0018  
                                      _LATC 001A                                        i1l80 00DF  
                                      i1l76 00F5                                        i1l86 0117  
                                      _WPUA 1F39                                        _WPUC 1F4F  
                                      u1_20 00D8                                        u1_21 00D7  
                                      u2_20 00A5                                        u2_21 00A4  
                                      u3_20 00AE                                        u3_21 00AD  
                                      u4_20 00F2                                        u4_21 00F1  
                                      u5_20 00CC                                        u5_21 00CB  
                                      u6_20 000B                                        u6_21 000A  
                                      u7_20 000F                                        u7_21 000E  
                                      u8_20 0017                                        u8_21 0016  
                                      u9_20 001B                                        u9_21 001A  
                                      _main 0029                             _TMR0_StartTimer 010C  
                                      btemp 007E                                        start 0020  
                   __end_of_TMR0_Initialize 00C4              ??_TMR0_DefaultInterruptHandler 0079  
             __end_of_OSCILLATOR_Initialize 010C                                       ?_main 0079  
                                     i1l134 0116                                       i1l215 00FC  
                                     i1l151 001E                                       i1l128 00D1  
                                     i1l219 00AF                                       i1l147 0013  
                                     i1l803 00D2                                       i1l811 00A0  
                                     i1l805 00D8                                       i1l813 00A5  
                                     i1l751 00F8                                       i1l807 00DD  
                                     i1l823 00ED                                       i1l815 00AE  
                                     i1l831 00C6                                       i1l825 00F2  
                                     i1l809 0098                                       i1l833 00CC  
                                     i1l851 0017                                       i1l749 00F6  
                                     i1l829 00C4                                       i1l853 001B  
                                     i1l845 0006                                       i1l847 000B  
                                     i1l849 000F                                       _OSCEN 0891  
                                     _TMR0H 059D                                       _TMR0L 059C  
                                     _TRISA 0012                                       _TRISC 0014  
                 ?_TMR0_SetInterruptHandler 0079                            __end_of_TMR0_ISR 00D2  
                   __end_of_PIN_MANAGER_IOC 00F6                              _WDT_Initialize 010F  
                                     pclath 000A                                       status 0003  
                                     wtemp0 007E                             __initialization 0021  
                              __end_of_main 0072                 ?_INTERRUPT_InterruptManager 0079  
                                    ??_main 007B                     _IOCCF2_InterruptHandler 0077  
                    __end_of_WDT_Initialize 0112                     __end_of_TMR0_StartTimer 010F  
                                    _ANSELA 1F38                                      _ANSELC 1F4E  
                                    _T0CON0 059E                                      _T0CON1 059F  
                                    _ODCONA 1F3A                                      _ODCONC 1F50  
                                    _INLVLA 1F3C                                      _INLVLC 1F52  
                                    _OSCFRQ 0893                                      _WDTCON 080C  
                          ?_TMR0_Initialize 0079                             ?_WDT_Initialize 0079  
  TMR0_SetInterruptHandler@InterruptHandler 0079  IOCCF2_SetInterruptHandler@InterruptHandler 0079  
                          ?_PIN_MANAGER_IOC 0079                                ??_IOCCF2_ISR 0079  
                         _SYSTEM_Initialize 00E0                     __end_of__initialization 0026  
                        ?_SYSTEM_Initialize 0079                              __pcstackCOMMON 0079  
                       ??_SYSTEM_Initialize 007B                                   ?_TMR0_ISR 0079  
                        __end_of_IOCCF2_ISR 00E0                            ?_TMR0_StartTimer 0079  
                 __end_of_SYSTEM_Initialize 00ED                                  __pnvCOMMON 0075  
    __end_of_IOCCF2_DefaultInterruptHandler 0118              _IOCCF2_DefaultInterruptHandler 0117  
                                __pmaintext 0029            __end_of_TMR0_SetInterruptHandler 0102  
                                ??_TMR0_ISR 0079                                  __pintentry 0004  
                                _ledCounter 0070                                     _OSCTUNE 0892  
                                   _SLRCONA 1F3B                                     _SLRCONC 1F51  
                         __end_of_ledPeriod 0114                                  _levelSwISR 00F6  
                                   __ptext1 010C                                     __ptext2 00E0  
                                   __ptext3 010F                                     __ptext4 00B0  
                                   __ptext5 00FD                                     __ptext6 0072  
                                   __ptext7 0102                                     __ptext8 0107  
                     _OSCILLATOR_Initialize 0107                    ??_PIN_MANAGER_Initialize 007B  
                                 _IOCCFbits 1F55                                   _IOCCNbits 1F54  
                                 _IOCCPbits 1F53                        end_of_initialization 0026  
                         __end_of_timer0ISR 00B0                            ??_WDT_Initialize 0079  
                  _TMR0_SetInterruptHandler 00FD                                   _PORTAbits 000C  
                                 _PORTCbits 000E                ??_IOCCF2_SetInterruptHandler 007B  
                      __end_of_tankFillTime 0116                                 ?_levelSwISR 0079  
                    ?_OSCILLATOR_Initialize 0079                         start_initialization 0021  
                               __pbssCOMMON 0070                                   ___latbits 0000  
                     _TMR0_InterruptHandler 0075                      _PIN_MANAGER_Initialize 0072  
                                 _ledPeriod 0112                ??_INTERRUPT_InterruptManager 0079  
        __end_of_IOCCF2_SetInterruptHandler 0107                  _IOCCF2_SetInterruptHandler 0102  
                         ??_TMR0_Initialize 007B                                    _LATAbits 0018  
                                  _LATCbits 001A                                    _PIE0bits 0716  
                ??_TMR0_SetInterruptHandler 007B                                    _PIR0bits 070C  
                                 _timer0ISR 0098                                    _TMR0_ISR 00C4  
                         ??_PIN_MANAGER_IOC 0079                                   _pumpState 0074  
                              _tankFillTime 0114                                  ?_timer0ISR 0079  
                   ??_OSCILLATOR_Initialize 0079                           ??_TMR0_StartTimer 0079  
                              ??_levelSwISR 0079                                  _T0CON0bits 059E  
                                  __ptext10 00C4                                    __ptext11 0116  
                                  __ptext12 0098                                    __ptext13 00ED  
                                  __ptext14 00D2                                    __ptext15 0117  
                                  __ptext16 00F6                                  _IOCCF2_ISR 00D2  
                        __end_of_levelSwISR 00FD        __end_of_TMR0_DefaultInterruptHandler 0117  
              _TMR0_DefaultInterruptHandler 0116                                    int$flags 007E  
        __end_of_INTERRUPT_InterruptManager 0020                  _INTERRUPT_InterruptManager 0004  
                                _INTCONbits 000B                                    intlevel1 0000  
                   ?_PIN_MANAGER_Initialize 0079                                 ??_timer0ISR 0079  
             ?_TMR0_DefaultInterruptHandler 0079                               __pstringtext1 0112  
                             __pstringtext2 0114                             _TMR0_Initialize 00B0  
               ?_IOCCF2_SetInterruptHandler 0079                                 ?_IOCCF2_ISR 0079  
            __end_of_PIN_MANAGER_Initialize 0098                             _PIN_MANAGER_IOC 00ED  
                               _pumpCounter 0072  
